; Listing generated by Microsoft (R) Optimizing Compiler Version 19.16.27026.1 

	TITLE	E:\Test\Direct2D_Test\main.cpp
	.686P
	.XMM
	include listing.inc
	.model	flat

INCLUDELIB MSVCRTD
INCLUDELIB OLDNAMES

PUBLIC	?g_d2dfactory@@3PAUID2D1Factory@@A		; g_d2dfactory
PUBLIC	?g_hwnd_rt@@3PAUID2D1HwndRenderTarget@@A	; g_hwnd_rt
_BSS	SEGMENT
?g_d2dfactory@@3PAUID2D1Factory@@A DD 01H DUP (?)	; g_d2dfactory
?g_hwnd_rt@@3PAUID2D1HwndRenderTarget@@A DD 01H DUP (?)	; g_hwnd_rt
_BSS	ENDS
msvcjmc	SEGMENT
__7B7A869E_ctype@h DB 01H
__457DD326_basetsd@h DB 01H
__4384A2D9_corecrt_memcpy_s@h DB 01H
__2088847F_corecrt_memory@h DB 01H
__4E51A221_corecrt_wstring@h DB 01H
__2140C079_string@h DB 01H
__E9FFF232_guiddef@h DB 01H
__1887E595_winnt@h DB 01H
__9FC7C64B_processthreadsapi@h DB 01H
__FA470AEC_memoryapi@h DB 01H
__F37DAFF1_winerror@h DB 01H
__7A450CCC_winbase@h DB 01H
__12AD47BB_winuser@h DB 01H
__B4B40122_winioctl@h DB 01H
__A73354DD_stdlib@h DB 01H
__25F3FB34_propidl@h DB 01H
__A40E48B8_oleauto@h DB 01H
__86261D59_stralign@h DB 01H
__6B9C2DC0_tchar@h DB 01H
__2CC6E67D_corecrt_stdio_config@h DB 01H
__41381B41_corecrt_wconio@h DB 01H
__F0CC4AC4_corecrt_wio@h DB 01H
__05476D76_corecrt_wstdio@h DB 01H
__C0802A2B_corecrt_wtime@h DB 01H
__A40A425D_stat@h DB 01H
__5A74375D_wchar@h DB 01H
__A452D4A0_stdio@h DB 01H
__9D38B4C5_wndprocthunk@hpp DB 01H
__C57D2607_windowclass@hpp DB 01H
__C928C9E6_windowclass@cpp DB 01H
__D0535EE9_mainwin@cpp DB 01H
__FA833D16_dcommon@h DB 01H
__4DE96A1E_d3d10@h DB 01H
__184E0B43_d2d1helper@h DB 01H
__2D95B4C2_d2d1@h DB 01H
__10BEF2DC_d2d1_1helper@h DB 01H
__CD40DD4C_d2d1_1@h DB 01H
__6BC0FD35_vcruntime_new@h DB 01H
__188180DA_corecrt_math@h DB 01H
__D23EE329_cstdlib DB 01H
__5ECFF36E_type_traits DB 01H
__331E732B_malloc@h DB 01H
__9BB4E194_vcruntime_exception@h DB 01H
__7949CB39_exception DB 01H
__5BC57B37_d2d_code@cpp DB 01H
__E4A4DC94_main@cpp DB 01H
msvcjmc	ENDS
CONST	SEGMENT
$SG93203 DB	00H
$SG93250 DB	00H
	ORG $+2
$SG93213 DB	'Default Window', 00H
	ORG $+1
$SG93221 DB	'Default Window', 00H
	ORG $+5
$SG93253 DB	'X : %d , Y : %d , Width : %d , Height : %d   |   ClientW'
	DB	'idth : %d , ClientHeight : %d', 00H
	ORG $+2
$SG93255 DB	'X : %d , Y : %d , Width : %d , Height : %d   |   ClientW'
	DB	'idth : %d , ClientHeight : %d', 00H
	ORG $+2
$SG93257 DB	'X : %d , Y : %d , Width : %d , Height : %d   |   ClientW'
	DB	'idth : %d , ClientHeight : %d', 00H
	ORG $+2
$SG112525 DB	'Direct2D_AlphaWindow', 00H
CONST	ENDS
PUBLIC	_wWinMain@16
PUBLIC	___local_stdio_printf_options
PUBLIC	__vsprintf_s_l
PUBLIC	_vsprintf_s
PUBLIC	??0WndProcThunk@@QAE@XZ				; WndProcThunk::WndProcThunk
PUBLIC	??1WndProcThunk@@QAE@XZ				; WndProcThunk::~WndProcThunk
PUBLIC	?Init@WndProcThunk@@QAEHKPAX@Z			; WndProcThunk::Init
PUBLIC	?GetWndProcThunk@WndProcThunk@@QAEP6GJPAUHWND__@@IIJ@ZXZ ; WndProcThunk::GetWndProcThunk
PUBLIC	?Init@_WndProcStdCallThunk@WndProcThunk@@QAEHKPAX@Z ; WndProcThunk::_WndProcStdCallThunk::Init
PUBLIC	?GetCodeAddress@_WndProcStdCallThunk@WndProcThunk@@QAEPAXXZ ; WndProcThunk::_WndProcStdCallThunk::GetCodeAddress
PUBLIC	??0Window@@QAE@PAUHINSTANCE__@@@Z		; Window::Window
PUBLIC	??1Window@@QAE@XZ				; Window::~Window
PUBLIC	?GetHwnd@Window@@QAEPAUHWND__@@XZ		; Window::GetHwnd
PUBLIC	?GetClientSize@Window@@QAE?AUtagSIZE@@XZ	; Window::GetClientSize
PUBLIC	?SetClientSize@Window@@QAE_NHH@Z		; Window::SetClientSize
PUBLIC	?Create@Window@@QAE_NKPBDKHHHHPAUHWND__@@PAUHMENU__@@HPAUtagWNDCLASSEXA@@@Z ; Window::Create
PUBLIC	?Create@Window@@QAE_NHHHH@Z			; Window::Create
PUBLIC	?Create@Window@@QAE_NXZ				; Window::Create
PUBLIC	?Show@Window@@QAEXH@Z				; Window::Show
PUBLIC	?GetClientWidth@Window@@QAEIXZ			; Window::GetClientWidth
PUBLIC	?GetClientHeight@Window@@QAEIXZ			; Window::GetClientHeight
PUBLIC	?StaticWndProc@Window@@KGJPAUHWND__@@IIJ@Z	; Window::StaticWndProc
PUBLIC	?InitWndProc@Window@@KGJPAUHWND__@@IIJ@Z	; Window::InitWndProc
PUBLIC	?WndProc@Window@@MAEJPAUHWND__@@IIJ@Z		; Window::WndProc
PUBLIC	??$sprintf_s@$0IA@@@YAHAAY0IA@DPBDZZ		; sprintf_s<128>
PUBLIC	??0MainWin@@QAE@XZ				; MainWin::MainWin
PUBLIC	?WndProc@MainWin@@MAEJPAUHWND__@@IIJ@Z		; MainWin::WndProc
PUBLIC	??1MainWin@@QAE@XZ				; MainWin::~MainWin
PUBLIC	?Clear@ID2D1RenderTarget@@QAEXABU_D3DCOLORVALUE@@@Z ; ID2D1RenderTarget::Clear
PUBLIC	?CreateHwndRenderTarget@ID2D1Factory@@QAEJABUD2D1_RENDER_TARGET_PROPERTIES@@ABUD2D1_HWND_RENDER_TARGET_PROPERTIES@@PAPAUID2D1HwndRenderTarget@@@Z ; ID2D1Factory::CreateHwndRenderTarget
PUBLIC	?SizeU@D2D1@@YA?AUD2D_SIZE_U@@II@Z		; D2D1::SizeU
PUBLIC	??$Size@I@D2D1@@YA?AUD2D_SIZE_U@@II@Z		; D2D1::Size<unsigned int>
PUBLIC	?PixelFormat@D2D1@@YA?AUD2D1_PIXEL_FORMAT@@W4DXGI_FORMAT@@W4D2D1_ALPHA_MODE@@@Z ; D2D1::PixelFormat
PUBLIC	?RenderTargetProperties@D2D1@@YA?AUD2D1_RENDER_TARGET_PROPERTIES@@W4D2D1_RENDER_TARGET_TYPE@@ABUD2D1_PIXEL_FORMAT@@MMW4D2D1_RENDER_TARGET_USAGE@@W4D2D1_FEATURE_LEVEL@@@Z ; D2D1::RenderTargetProperties
PUBLIC	?HwndRenderTargetProperties@D2D1@@YA?AUD2D1_HWND_RENDER_TARGET_PROPERTIES@@PAUHWND__@@UD2D_SIZE_U@@W4D2D1_PRESENT_OPTIONS@@@Z ; D2D1::HwndRenderTargetProperties
PUBLIC	??0ColorF@D2D1@@QAE@W4Enum@01@M@Z		; D2D1::ColorF::ColorF
PUBLIC	?Init@ColorF@D2D1@@AAEXIM@Z			; D2D1::ColorF::Init
PUBLIC	?D2D1CreateFactory@@YAJW4D2D1_FACTORY_TYPE@@ABU_GUID@@PAPAX@Z ; D2D1CreateFactory
PUBLIC	??0exception@std@@QAE@XZ			; std::exception::exception
PUBLIC	??0exception@std@@QAE@ABV01@@Z			; std::exception::exception
PUBLIC	??1exception@std@@UAE@XZ			; std::exception::~exception
PUBLIC	?what@exception@std@@UBEPBDXZ			; std::exception::what
PUBLIC	??_Gexception@std@@UAEPAXI@Z			; std::exception::`scalar deleting destructor'
PUBLIC	??0com_exception@DX@@QAE@J@Z			; DX::com_exception::com_exception
PUBLIC	?what@com_exception@DX@@UBEPBDXZ		; DX::com_exception::what
PUBLIC	??1com_exception@DX@@UAE@XZ			; DX::com_exception::~com_exception
PUBLIC	??0com_exception@DX@@QAE@ABV01@@Z		; DX::com_exception::com_exception
PUBLIC	??_Gcom_exception@DX@@UAEPAXI@Z			; DX::com_exception::`scalar deleting destructor'
PUBLIC	??$sprintf_s@$0EA@@@YAHAAY0EA@DPBDZZ		; sprintf_s<64>
PUBLIC	?ThrowIfFailed@DX@@YAXJ@Z			; DX::ThrowIfFailed
PUBLIC	?InitDirect2D@@YAXAAVWindow@@@Z			; InitDirect2D
PUBLIC	??$D2D1CreateFactory@UID2D1Factory@@@@YAJW4D2D1_FACTORY_TYPE@@PAPAUID2D1Factory@@@Z ; D2D1CreateFactory<ID2D1Factory>
PUBLIC	?DestroyResource@@YAXXZ				; DestroyResource
PUBLIC	?RenderDirect2D@@YAXXZ				; RenderDirect2D
PUBLIC	__JustMyCode_Default
PUBLIC	?_OptionsStorage@?1??__local_stdio_printf_options@@9@4_KA ; `__local_stdio_printf_options'::`2'::_OptionsStorage
PUBLIC	??_7Window@@6B@					; Window::`vftable'
PUBLIC	??_7MainWin@@6B@				; MainWin::`vftable'
PUBLIC	?g_mainwin@@3VMainWin@@A			; g_mainwin
PUBLIC	??_7exception@std@@6B@				; std::exception::`vftable'
PUBLIC	??_C@_0BC@EOODALEL@Unknown?5exception@		; `string'
PUBLIC	??_7com_exception@DX@@6B@			; DX::com_exception::`vftable'
PUBLIC	?s_str@?1??what@com_exception@DX@@UBEPBDXZ@4PADA ; `DX::com_exception::what'::`2'::s_str
PUBLIC	??_C@_0BN@HGKPNCEI@Failure?5with?5HRESULT?5of?5?$CF08X@ ; `string'
PUBLIC	__TI2?AVcom_exception@DX@@
PUBLIC	__CTA2?AVcom_exception@DX@@
PUBLIC	??_R0?AVcom_exception@DX@@@8			; DX::com_exception `RTTI Type Descriptor'
PUBLIC	__CT??_R0?AVcom_exception@DX@@@8??0com_exception@DX@@QAE@ABV01@@Z16
PUBLIC	??_R0?AVexception@std@@@8			; std::exception `RTTI Type Descriptor'
PUBLIC	__CT??_R0?AVexception@std@@@8??0exception@std@@QAE@ABV01@@Z12
PUBLIC	__GUID_06152247_6f50_465a_9245_118bfd3b6007
PUBLIC	??_R4Window@@6B@				; Window::`RTTI Complete Object Locator'
PUBLIC	??_R0?AVWindow@@@8				; Window `RTTI Type Descriptor'
PUBLIC	??_R3Window@@8					; Window::`RTTI Class Hierarchy Descriptor'
PUBLIC	??_R2Window@@8					; Window::`RTTI Base Class Array'
PUBLIC	??_R1A@?0A@EA@Window@@8				; Window::`RTTI Base Class Descriptor at (0,-1,0,64)'
PUBLIC	??_R4MainWin@@6B@				; MainWin::`RTTI Complete Object Locator'
PUBLIC	??_R0?AVMainWin@@@8				; MainWin `RTTI Type Descriptor'
PUBLIC	??_R3MainWin@@8					; MainWin::`RTTI Class Hierarchy Descriptor'
PUBLIC	??_R2MainWin@@8					; MainWin::`RTTI Base Class Array'
PUBLIC	??_R1A@?0A@EA@MainWin@@8			; MainWin::`RTTI Base Class Descriptor at (0,-1,0,64)'
PUBLIC	??_R4exception@std@@6B@				; std::exception::`RTTI Complete Object Locator'
PUBLIC	??_R3exception@std@@8				; std::exception::`RTTI Class Hierarchy Descriptor'
PUBLIC	??_R2exception@std@@8				; std::exception::`RTTI Base Class Array'
PUBLIC	??_R1A@?0A@EA@exception@std@@8			; std::exception::`RTTI Base Class Descriptor at (0,-1,0,64)'
PUBLIC	??_R4com_exception@DX@@6B@			; DX::com_exception::`RTTI Complete Object Locator'
PUBLIC	??_R3com_exception@DX@@8			; DX::com_exception::`RTTI Class Hierarchy Descriptor'
PUBLIC	??_R2com_exception@DX@@8			; DX::com_exception::`RTTI Base Class Array'
PUBLIC	??_R1A@?0A@EA@com_exception@DX@@8		; DX::com_exception::`RTTI Base Class Descriptor at (0,-1,0,64)'
PUBLIC	__real@3f800000
PUBLIC	__real@437f0000
PUBLIC	__xmm@41f00000000000000000000000000000
EXTRN	??3@YAXPAXI@Z:PROC				; operator delete
EXTRN	_atexit:PROC
EXTRN	__imp__GetCurrentProcess@0:PROC
EXTRN	__imp__FlushInstructionCache@12:PROC
EXTRN	__imp__VirtualAlloc@16:PROC
EXTRN	__imp__VirtualFree@12:PROC
EXTRN	__imp__CreateSolidBrush@4:PROC
EXTRN	__imp__TranslateMessage@4:PROC
EXTRN	__imp__DispatchMessageA@4:PROC
EXTRN	__imp__PeekMessageA@20:PROC
EXTRN	__imp__DefWindowProcA@16:PROC
EXTRN	__imp__PostQuitMessage@4:PROC
EXTRN	__imp__RegisterClassExA@4:PROC
EXTRN	__imp__CreateWindowExA@48:PROC
EXTRN	__imp__IsWindow@4:PROC
EXTRN	__imp__DestroyWindow@4:PROC
EXTRN	__imp__ShowWindow@8:PROC
EXTRN	__imp__MoveWindow@24:PROC
EXTRN	__imp__SetWindowTextA@8:PROC
EXTRN	__imp__GetClientRect@8:PROC
EXTRN	__imp__GetWindowRect@8:PROC
EXTRN	__imp__SetWindowLongA@12:PROC
EXTRN	__imp__LoadCursorA@8:PROC
EXTRN	__imp___ui64toa_s:PROC
EXTRN	__imp____stdio_common_vsprintf_s:PROC
EXTRN	_D2D1CreateFactory@16:PROC
EXTRN	___std_exception_copy:PROC
EXTRN	___std_exception_destroy:PROC
EXTRN	??_Eexception@std@@UAEPAXI@Z:PROC		; std::exception::`vector deleting destructor'
EXTRN	??_Ecom_exception@DX@@UAEPAXI@Z:PROC		; DX::com_exception::`vector deleting destructor'
EXTRN	@_RTC_CheckStackVars@8:PROC
EXTRN	@__CheckForDebuggerJustMyCode@4:PROC
EXTRN	@__security_check_cookie@4:PROC
EXTRN	__CxxThrowException@8:PROC
EXTRN	__RTC_CheckEsp:PROC
EXTRN	__RTC_InitBase:PROC
EXTRN	__RTC_Shutdown:PROC
EXTRN	__RTC_UninitUse:PROC
EXTRN	___CxxFrameHandler3:PROC
EXTRN	_memset:PROC
EXTRN	??_7type_info@@6B@:QWORD			; type_info::`vftable'
EXTRN	___security_cookie:DWORD
EXTRN	__fltused:DWORD
;	COMDAT ?_OptionsStorage@?1??__local_stdio_printf_options@@9@4_KA
_BSS	SEGMENT
?_OptionsStorage@?1??__local_stdio_printf_options@@9@4_KA DQ 01H DUP (?) ; `__local_stdio_printf_options'::`2'::_OptionsStorage
_BSS	ENDS
_BSS	SEGMENT
?g_mainwin@@3VMainWin@@A DB 028H DUP (?)		; g_mainwin
_BSS	ENDS
;	COMDAT ?s_str@?1??what@com_exception@DX@@UBEPBDXZ@4PADA
_BSS	SEGMENT
?s_str@?1??what@com_exception@DX@@UBEPBDXZ@4PADA DB 040H DUP (?) ; `DX::com_exception::what'::`2'::s_str
_BSS	ENDS
CRT$XCU	SEGMENT
?g_mainwin$initializer$@@3P6AXXZA DD FLAT:??__Eg_mainwin@@YAXXZ ; g_mainwin$initializer$
CRT$XCU	ENDS
;	COMDAT __xmm@41f00000000000000000000000000000
CONST	SEGMENT
__xmm@41f00000000000000000000000000000 DB 00H, 00H, 00H, 00H, 00H, 00H, 00H
	DB	00H, 00H, 00H, 00H, 00H, 00H, 00H, 0f0H, 'A'
CONST	ENDS
;	COMDAT __real@437f0000
CONST	SEGMENT
__real@437f0000 DD 0437f0000r			; 255
CONST	ENDS
;	COMDAT __real@3f800000
CONST	SEGMENT
__real@3f800000 DD 03f800000r			; 1
CONST	ENDS
;	COMDAT rtc$TMZ
rtc$TMZ	SEGMENT
__RTC_Shutdown.rtc$TMZ DD FLAT:__RTC_Shutdown
rtc$TMZ	ENDS
;	COMDAT rtc$IMZ
rtc$IMZ	SEGMENT
__RTC_InitBase.rtc$IMZ DD FLAT:__RTC_InitBase
rtc$IMZ	ENDS
;	COMDAT ??_R1A@?0A@EA@com_exception@DX@@8
rdata$r	SEGMENT
??_R1A@?0A@EA@com_exception@DX@@8 DD FLAT:??_R0?AVcom_exception@DX@@@8 ; DX::com_exception::`RTTI Base Class Descriptor at (0,-1,0,64)'
	DD	01H
	DD	00H
	DD	0ffffffffH
	DD	00H
	DD	040H
	DD	FLAT:??_R3com_exception@DX@@8
rdata$r	ENDS
;	COMDAT ??_R2com_exception@DX@@8
rdata$r	SEGMENT
??_R2com_exception@DX@@8 DD FLAT:??_R1A@?0A@EA@com_exception@DX@@8 ; DX::com_exception::`RTTI Base Class Array'
	DD	FLAT:??_R1A@?0A@EA@exception@std@@8
rdata$r	ENDS
;	COMDAT ??_R3com_exception@DX@@8
rdata$r	SEGMENT
??_R3com_exception@DX@@8 DD 00H				; DX::com_exception::`RTTI Class Hierarchy Descriptor'
	DD	00H
	DD	02H
	DD	FLAT:??_R2com_exception@DX@@8
rdata$r	ENDS
;	COMDAT ??_R4com_exception@DX@@6B@
rdata$r	SEGMENT
??_R4com_exception@DX@@6B@ DD 00H			; DX::com_exception::`RTTI Complete Object Locator'
	DD	00H
	DD	00H
	DD	FLAT:??_R0?AVcom_exception@DX@@@8
	DD	FLAT:??_R3com_exception@DX@@8
rdata$r	ENDS
;	COMDAT ??_R1A@?0A@EA@exception@std@@8
rdata$r	SEGMENT
??_R1A@?0A@EA@exception@std@@8 DD FLAT:??_R0?AVexception@std@@@8 ; std::exception::`RTTI Base Class Descriptor at (0,-1,0,64)'
	DD	00H
	DD	00H
	DD	0ffffffffH
	DD	00H
	DD	040H
	DD	FLAT:??_R3exception@std@@8
rdata$r	ENDS
;	COMDAT ??_R2exception@std@@8
rdata$r	SEGMENT
??_R2exception@std@@8 DD FLAT:??_R1A@?0A@EA@exception@std@@8 ; std::exception::`RTTI Base Class Array'
rdata$r	ENDS
;	COMDAT ??_R3exception@std@@8
rdata$r	SEGMENT
??_R3exception@std@@8 DD 00H				; std::exception::`RTTI Class Hierarchy Descriptor'
	DD	00H
	DD	01H
	DD	FLAT:??_R2exception@std@@8
rdata$r	ENDS
;	COMDAT ??_R4exception@std@@6B@
rdata$r	SEGMENT
??_R4exception@std@@6B@ DD 00H				; std::exception::`RTTI Complete Object Locator'
	DD	00H
	DD	00H
	DD	FLAT:??_R0?AVexception@std@@@8
	DD	FLAT:??_R3exception@std@@8
rdata$r	ENDS
;	COMDAT ??_R1A@?0A@EA@MainWin@@8
rdata$r	SEGMENT
??_R1A@?0A@EA@MainWin@@8 DD FLAT:??_R0?AVMainWin@@@8	; MainWin::`RTTI Base Class Descriptor at (0,-1,0,64)'
	DD	01H
	DD	00H
	DD	0ffffffffH
	DD	00H
	DD	040H
	DD	FLAT:??_R3MainWin@@8
rdata$r	ENDS
;	COMDAT ??_R2MainWin@@8
rdata$r	SEGMENT
??_R2MainWin@@8 DD FLAT:??_R1A@?0A@EA@MainWin@@8	; MainWin::`RTTI Base Class Array'
	DD	FLAT:??_R1A@?0A@EA@Window@@8
rdata$r	ENDS
;	COMDAT ??_R3MainWin@@8
rdata$r	SEGMENT
??_R3MainWin@@8 DD 00H					; MainWin::`RTTI Class Hierarchy Descriptor'
	DD	00H
	DD	02H
	DD	FLAT:??_R2MainWin@@8
rdata$r	ENDS
;	COMDAT ??_R0?AVMainWin@@@8
data$r	SEGMENT
??_R0?AVMainWin@@@8 DD FLAT:??_7type_info@@6B@		; MainWin `RTTI Type Descriptor'
	DD	00H
	DB	'.?AVMainWin@@', 00H
data$r	ENDS
;	COMDAT ??_R4MainWin@@6B@
rdata$r	SEGMENT
??_R4MainWin@@6B@ DD 00H				; MainWin::`RTTI Complete Object Locator'
	DD	00H
	DD	00H
	DD	FLAT:??_R0?AVMainWin@@@8
	DD	FLAT:??_R3MainWin@@8
rdata$r	ENDS
;	COMDAT ??_R1A@?0A@EA@Window@@8
rdata$r	SEGMENT
??_R1A@?0A@EA@Window@@8 DD FLAT:??_R0?AVWindow@@@8	; Window::`RTTI Base Class Descriptor at (0,-1,0,64)'
	DD	00H
	DD	00H
	DD	0ffffffffH
	DD	00H
	DD	040H
	DD	FLAT:??_R3Window@@8
rdata$r	ENDS
;	COMDAT ??_R2Window@@8
rdata$r	SEGMENT
??_R2Window@@8 DD FLAT:??_R1A@?0A@EA@Window@@8		; Window::`RTTI Base Class Array'
rdata$r	ENDS
;	COMDAT ??_R3Window@@8
rdata$r	SEGMENT
??_R3Window@@8 DD 00H					; Window::`RTTI Class Hierarchy Descriptor'
	DD	00H
	DD	01H
	DD	FLAT:??_R2Window@@8
rdata$r	ENDS
;	COMDAT ??_R0?AVWindow@@@8
data$r	SEGMENT
??_R0?AVWindow@@@8 DD FLAT:??_7type_info@@6B@		; Window `RTTI Type Descriptor'
	DD	00H
	DB	'.?AVWindow@@', 00H
data$r	ENDS
;	COMDAT ??_R4Window@@6B@
rdata$r	SEGMENT
??_R4Window@@6B@ DD 00H					; Window::`RTTI Complete Object Locator'
	DD	00H
	DD	00H
	DD	FLAT:??_R0?AVWindow@@@8
	DD	FLAT:??_R3Window@@8
rdata$r	ENDS
;	COMDAT __GUID_06152247_6f50_465a_9245_118bfd3b6007
CONST	SEGMENT
__GUID_06152247_6f50_465a_9245_118bfd3b6007 DD 06152247H
	DW	06f50H
	DW	0465aH
	DB	092H
	DB	045H
	DB	011H
	DB	08bH
	DB	0fdH
	DB	03bH
	DB	060H
	DB	07H
CONST	ENDS
;	COMDAT __CT??_R0?AVexception@std@@@8??0exception@std@@QAE@ABV01@@Z12
xdata$x	SEGMENT
__CT??_R0?AVexception@std@@@8??0exception@std@@QAE@ABV01@@Z12 DD 00H
	DD	FLAT:??_R0?AVexception@std@@@8
	DD	00H
	DD	0ffffffffH
	ORG $+4
	DD	0cH
	DD	FLAT:??0exception@std@@QAE@ABV01@@Z
xdata$x	ENDS
;	COMDAT ??_R0?AVexception@std@@@8
data$r	SEGMENT
??_R0?AVexception@std@@@8 DD FLAT:??_7type_info@@6B@	; std::exception `RTTI Type Descriptor'
	DD	00H
	DB	'.?AVexception@std@@', 00H
data$r	ENDS
;	COMDAT __CT??_R0?AVcom_exception@DX@@@8??0com_exception@DX@@QAE@ABV01@@Z16
xdata$x	SEGMENT
__CT??_R0?AVcom_exception@DX@@@8??0com_exception@DX@@QAE@ABV01@@Z16 DD 00H
	DD	FLAT:??_R0?AVcom_exception@DX@@@8
	DD	00H
	DD	0ffffffffH
	ORG $+4
	DD	010H
	DD	FLAT:??0com_exception@DX@@QAE@ABV01@@Z
xdata$x	ENDS
;	COMDAT ??_R0?AVcom_exception@DX@@@8
data$r	SEGMENT
??_R0?AVcom_exception@DX@@@8 DD FLAT:??_7type_info@@6B@	; DX::com_exception `RTTI Type Descriptor'
	DD	00H
	DB	'.?AVcom_exception@DX@@', 00H
data$r	ENDS
;	COMDAT __CTA2?AVcom_exception@DX@@
xdata$x	SEGMENT
__CTA2?AVcom_exception@DX@@ DD 02H
	DD	FLAT:__CT??_R0?AVcom_exception@DX@@@8??0com_exception@DX@@QAE@ABV01@@Z16
	DD	FLAT:__CT??_R0?AVexception@std@@@8??0exception@std@@QAE@ABV01@@Z12
xdata$x	ENDS
;	COMDAT __TI2?AVcom_exception@DX@@
xdata$x	SEGMENT
__TI2?AVcom_exception@DX@@ DD 00H
	DD	FLAT:??1com_exception@DX@@UAE@XZ
	DD	00H
	DD	FLAT:__CTA2?AVcom_exception@DX@@
xdata$x	ENDS
;	COMDAT ??_C@_0BN@HGKPNCEI@Failure?5with?5HRESULT?5of?5?$CF08X@
CONST	SEGMENT
??_C@_0BN@HGKPNCEI@Failure?5with?5HRESULT?5of?5?$CF08X@ DB 'Failure with '
	DB	'HRESULT of %08X', 00H			; `string'
CONST	ENDS
;	COMDAT ??_7com_exception@DX@@6B@
CONST	SEGMENT
??_7com_exception@DX@@6B@ DD FLAT:??_R4com_exception@DX@@6B@ ; DX::com_exception::`vftable'
	DD	FLAT:??_Ecom_exception@DX@@UAEPAXI@Z
	DD	FLAT:?what@com_exception@DX@@UBEPBDXZ
CONST	ENDS
;	COMDAT ??_C@_0BC@EOODALEL@Unknown?5exception@
CONST	SEGMENT
??_C@_0BC@EOODALEL@Unknown?5exception@ DB 'Unknown exception', 00H ; `string'
CONST	ENDS
;	COMDAT ??_7exception@std@@6B@
CONST	SEGMENT
??_7exception@std@@6B@ DD FLAT:??_R4exception@std@@6B@	; std::exception::`vftable'
	DD	FLAT:??_Eexception@std@@UAEPAXI@Z
	DD	FLAT:?what@exception@std@@UBEPBDXZ
CONST	ENDS
;	COMDAT ??_7MainWin@@6B@
CONST	SEGMENT
??_7MainWin@@6B@ DD FLAT:??_R4MainWin@@6B@		; MainWin::`vftable'
	DD	FLAT:?WndProc@MainWin@@MAEJPAUHWND__@@IIJ@Z
CONST	ENDS
;	COMDAT ??_7Window@@6B@
CONST	SEGMENT
??_7Window@@6B@ DD FLAT:??_R4Window@@6B@		; Window::`vftable'
	DD	FLAT:?WndProc@Window@@MAEJPAUHWND__@@IIJ@Z
CONST	ENDS
;	COMDAT xdata$x
xdata$x	SEGMENT
__ehfuncinfo$??1exception@std@@UAE@XZ DD 019930522H
	DD	00H
	DD	00H
	DD	2 DUP(00H)
	DD	2 DUP(00H)
	DD	00H
	DD	05H
xdata$x	ENDS
;	COMDAT xdata$x
xdata$x	SEGMENT
__ehfuncinfo$??0exception@std@@QAE@ABV01@@Z DD 019930522H
	DD	00H
	DD	00H
	DD	2 DUP(00H)
	DD	2 DUP(00H)
	DD	00H
	DD	05H
xdata$x	ENDS
;	COMDAT xdata$x
xdata$x	SEGMENT
__ehfuncinfo$??0exception@std@@QAE@XZ DD 019930522H
	DD	00H
	DD	00H
	DD	2 DUP(00H)
	DD	2 DUP(00H)
	DD	00H
	DD	05H
xdata$x	ENDS
xdata$x	SEGMENT
__unwindtable$??0Window@@QAE@PAUHINSTANCE__@@@Z DD 0ffffffffH
	DD	FLAT:__unwindfunclet$??0Window@@QAE@PAUHINSTANCE__@@@Z$0
__ehfuncinfo$??1Window@@QAE@XZ DD 019930522H
	DD	00H
	DD	00H
	DD	2 DUP(00H)
	DD	2 DUP(00H)
	DD	00H
	DD	05H
__ehfuncinfo$??0Window@@QAE@PAUHINSTANCE__@@@Z DD 019930522H
	DD	01H
	DD	FLAT:__unwindtable$??0Window@@QAE@PAUHINSTANCE__@@@Z
	DD	2 DUP(00H)
	DD	2 DUP(00H)
	DD	00H
	DD	01H
xdata$x	ENDS
;	COMDAT xdata$x
xdata$x	SEGMENT
__ehfuncinfo$??1WndProcThunk@@QAE@XZ DD 019930522H
	DD	00H
	DD	00H
	DD	2 DUP(00H)
	DD	2 DUP(00H)
	DD	00H
	DD	05H
xdata$x	ENDS
; Function compile flags: /Odt
;	COMDAT __JustMyCode_Default
_TEXT	SEGMENT
__JustMyCode_Default PROC				; COMDAT
	push	ebp
	mov	ebp, esp
	pop	ebp
	ret	0
__JustMyCode_Default ENDP
_TEXT	ENDS
; Function compile flags: /Odtp /RTCsu
_TEXT	SEGMENT
$T1 = -20						; size = 16
__$ArrayPad$ = -4					; size = 4
?RenderDirect2D@@YAXXZ PROC				; RenderDirect2D
; File e:\test\direct2d_test\d2d_code.cpp
; Line 62
	push	ebp
	mov	ebp, esp
	sub	esp, 20					; 00000014H
	push	esi
	mov	eax, -858993460				; ccccccccH
	mov	DWORD PTR [ebp-20], eax
	mov	DWORD PTR [ebp-16], eax
	mov	DWORD PTR [ebp-12], eax
	mov	DWORD PTR [ebp-8], eax
	mov	DWORD PTR [ebp-4], eax
	mov	eax, DWORD PTR ___security_cookie
	xor	eax, ebp
	mov	DWORD PTR __$ArrayPad$[ebp], eax
	mov	ecx, OFFSET __5BC57B37_d2d_code@cpp
	call	@__CheckForDebuggerJustMyCode@4
; Line 63
	mov	eax, DWORD PTR ?g_hwnd_rt@@3PAUID2D1HwndRenderTarget@@A ; g_hwnd_rt
	mov	ecx, DWORD PTR [eax]
	mov	esi, esp
	mov	edx, DWORD PTR ?g_hwnd_rt@@3PAUID2D1HwndRenderTarget@@A ; g_hwnd_rt
	push	edx
	mov	eax, DWORD PTR [ecx+192]
	call	eax
	cmp	esi, esp
	call	__RTC_CheckEsp
; Line 64
	push	ecx
	movss	xmm0, DWORD PTR __real@3f800000
	movss	DWORD PTR [esp], xmm0
	push	0
	lea	ecx, DWORD PTR $T1[ebp]
	call	??0ColorF@D2D1@@QAE@W4Enum@01@M@Z	; D2D1::ColorF::ColorF
	push	eax
	mov	ecx, DWORD PTR ?g_hwnd_rt@@3PAUID2D1HwndRenderTarget@@A ; g_hwnd_rt
	call	?Clear@ID2D1RenderTarget@@QAEXABU_D3DCOLORVALUE@@@Z ; ID2D1RenderTarget::Clear
; Line 68
	mov	esi, esp
	push	0
	push	0
	mov	ecx, DWORD PTR ?g_hwnd_rt@@3PAUID2D1HwndRenderTarget@@A ; g_hwnd_rt
	mov	edx, DWORD PTR [ecx]
	mov	eax, DWORD PTR ?g_hwnd_rt@@3PAUID2D1HwndRenderTarget@@A ; g_hwnd_rt
	push	eax
	mov	ecx, DWORD PTR [edx+196]
	call	ecx
	cmp	esi, esp
	call	__RTC_CheckEsp
; Line 69
	pop	esi
	mov	ecx, DWORD PTR __$ArrayPad$[ebp]
	xor	ecx, ebp
	call	@__security_check_cookie@4
	add	esp, 20					; 00000014H
	cmp	ebp, esp
	call	__RTC_CheckEsp
	mov	esp, ebp
	pop	ebp
	ret	0
?RenderDirect2D@@YAXXZ ENDP				; RenderDirect2D
_TEXT	ENDS
; Function compile flags: /Odtp /RTCsu
_TEXT	SEGMENT
?DestroyResource@@YAXXZ PROC				; DestroyResource
; File e:\test\direct2d_test\d2d_code.cpp
; Line 58
	push	ebp
	mov	ebp, esp
	push	esi
	mov	ecx, OFFSET __5BC57B37_d2d_code@cpp
	call	@__CheckForDebuggerJustMyCode@4
; Line 59
	mov	eax, DWORD PTR ?g_hwnd_rt@@3PAUID2D1HwndRenderTarget@@A ; g_hwnd_rt
	mov	ecx, DWORD PTR [eax]
	mov	esi, esp
	mov	edx, DWORD PTR ?g_hwnd_rt@@3PAUID2D1HwndRenderTarget@@A ; g_hwnd_rt
	push	edx
	mov	eax, DWORD PTR [ecx+8]
	call	eax
	cmp	esi, esp
	call	__RTC_CheckEsp
; Line 60
	mov	ecx, DWORD PTR ?g_d2dfactory@@3PAUID2D1Factory@@A ; g_d2dfactory
	mov	edx, DWORD PTR [ecx]
	mov	esi, esp
	mov	eax, DWORD PTR ?g_d2dfactory@@3PAUID2D1Factory@@A ; g_d2dfactory
	push	eax
	mov	ecx, DWORD PTR [edx+8]
	call	ecx
	cmp	esi, esp
	call	__RTC_CheckEsp
; Line 61
	pop	esi
	cmp	ebp, esp
	call	__RTC_CheckEsp
	pop	ebp
	ret	0
?DestroyResource@@YAXXZ ENDP				; DestroyResource
_TEXT	ENDS
; Function compile flags: /Odtp /RTCsu
;	COMDAT ??$D2D1CreateFactory@UID2D1Factory@@@@YAJW4D2D1_FACTORY_TYPE@@PAPAUID2D1Factory@@@Z
_TEXT	SEGMENT
_factoryType$ = 8					; size = 4
_factory$ = 12						; size = 4
??$D2D1CreateFactory@UID2D1Factory@@@@YAJW4D2D1_FACTORY_TYPE@@PAPAUID2D1Factory@@@Z PROC ; D2D1CreateFactory<ID2D1Factory>, COMDAT
; File c:\program files (x86)\windows kits\10\include\10.0.17763.0\um\d2d1.h
; Line 3740
	push	ebp
	mov	ebp, esp
	mov	ecx, OFFSET __2D95B4C2_d2d1@h
	call	@__CheckForDebuggerJustMyCode@4
; Line 3741
	mov	eax, DWORD PTR _factory$[ebp]
	push	eax
	push	OFFSET __GUID_06152247_6f50_465a_9245_118bfd3b6007
	mov	ecx, DWORD PTR _factoryType$[ebp]
	push	ecx
	call	?D2D1CreateFactory@@YAJW4D2D1_FACTORY_TYPE@@ABU_GUID@@PAPAX@Z ; D2D1CreateFactory
	add	esp, 12					; 0000000cH
; Line 3746
	cmp	ebp, esp
	call	__RTC_CheckEsp
	pop	ebp
	ret	0
??$D2D1CreateFactory@UID2D1Factory@@@@YAJW4D2D1_FACTORY_TYPE@@PAPAUID2D1Factory@@@Z ENDP ; D2D1CreateFactory<ID2D1Factory>
_TEXT	ENDS
; Function compile flags: /Odtp /RTCsu
_TEXT	SEGMENT
$T1 = -108						; size = 28
$T2 = -80						; size = 8
$T3 = -72						; size = 16
$T4 = -56						; size = 8
$T5 = -48						; size = 16
$T6 = -32						; size = 28
__$ArrayPad$ = -4					; size = 4
_win$ = 8						; size = 4
?InitDirect2D@@YAXAAVWindow@@@Z PROC			; InitDirect2D
; File e:\test\direct2d_test\d2d_code.cpp
; Line 42
	push	ebp
	mov	ebp, esp
	sub	esp, 108				; 0000006cH
	push	esi
	push	edi
	lea	edi, DWORD PTR [ebp-108]
	mov	ecx, 27					; 0000001bH
	mov	eax, -858993460				; ccccccccH
	rep stosd
	mov	eax, DWORD PTR ___security_cookie
	xor	eax, ebp
	mov	DWORD PTR __$ArrayPad$[ebp], eax
	mov	ecx, OFFSET __5BC57B37_d2d_code@cpp
	call	@__CheckForDebuggerJustMyCode@4
; Line 43
	push	OFFSET ?g_d2dfactory@@3PAUID2D1Factory@@A ; g_d2dfactory
	push	0
	call	??$D2D1CreateFactory@UID2D1Factory@@@@YAJW4D2D1_FACTORY_TYPE@@PAPAUID2D1Factory@@@Z ; D2D1CreateFactory<ID2D1Factory>
	add	esp, 8
	push	eax
	call	?ThrowIfFailed@DX@@YAXJ@Z		; DX::ThrowIfFailed
	add	esp, 4
; Line 48
	mov	ecx, DWORD PTR _win$[ebp]
	call	?GetClientHeight@Window@@QAEIXZ		; Window::GetClientHeight
	push	eax
	mov	ecx, DWORD PTR _win$[ebp]
	call	?GetClientWidth@Window@@QAEIXZ		; Window::GetClientWidth
	push	eax
	call	?SizeU@D2D1@@YA?AUD2D_SIZE_U@@II@Z	; D2D1::SizeU
	add	esp, 8
	mov	DWORD PTR $T4[ebp], eax
	mov	DWORD PTR $T4[ebp+4], edx
	push	0
	mov	eax, DWORD PTR $T4[ebp+4]
	push	eax
	mov	ecx, DWORD PTR $T4[ebp]
	push	ecx
	mov	ecx, DWORD PTR _win$[ebp]
	call	?GetHwnd@Window@@QAEPAUHWND__@@XZ	; Window::GetHwnd
	push	eax
	lea	edx, DWORD PTR $T3[ebp]
	push	edx
	call	?HwndRenderTargetProperties@D2D1@@YA?AUD2D1_HWND_RENDER_TARGET_PROPERTIES@@PAUHWND__@@UD2D_SIZE_U@@W4D2D1_PRESENT_OPTIONS@@@Z ; D2D1::HwndRenderTargetProperties
	add	esp, 20					; 00000014H
	mov	ecx, DWORD PTR [eax]
	mov	DWORD PTR $T5[ebp], ecx
	mov	edx, DWORD PTR [eax+4]
	mov	DWORD PTR $T5[ebp+4], edx
	mov	ecx, DWORD PTR [eax+8]
	mov	DWORD PTR $T5[ebp+8], ecx
	mov	edx, DWORD PTR [eax+12]
	mov	DWORD PTR $T5[ebp+12], edx
	push	0
	push	0
	call	?PixelFormat@D2D1@@YA?AUD2D1_PIXEL_FORMAT@@W4DXGI_FORMAT@@W4D2D1_ALPHA_MODE@@@Z ; D2D1::PixelFormat
	add	esp, 8
	mov	DWORD PTR $T2[ebp], eax
	mov	DWORD PTR $T2[ebp+4], edx
	push	0
	push	0
	push	ecx
	xorps	xmm0, xmm0
	movss	DWORD PTR [esp], xmm0
	push	ecx
	xorps	xmm0, xmm0
	movss	DWORD PTR [esp], xmm0
	lea	eax, DWORD PTR $T2[ebp]
	push	eax
	push	0
	lea	ecx, DWORD PTR $T1[ebp]
	push	ecx
	call	?RenderTargetProperties@D2D1@@YA?AUD2D1_RENDER_TARGET_PROPERTIES@@W4D2D1_RENDER_TARGET_TYPE@@ABUD2D1_PIXEL_FORMAT@@MMW4D2D1_RENDER_TARGET_USAGE@@W4D2D1_FEATURE_LEVEL@@@Z ; D2D1::RenderTargetProperties
	add	esp, 28					; 0000001cH
	mov	ecx, 7
	mov	esi, eax
	lea	edi, DWORD PTR $T6[ebp]
	rep movsd
	push	OFFSET ?g_hwnd_rt@@3PAUID2D1HwndRenderTarget@@A ; g_hwnd_rt
	lea	edx, DWORD PTR $T5[ebp]
	push	edx
	lea	eax, DWORD PTR $T6[ebp]
	push	eax
	mov	ecx, DWORD PTR ?g_d2dfactory@@3PAUID2D1Factory@@A ; g_d2dfactory
	call	?CreateHwndRenderTarget@ID2D1Factory@@QAEJABUD2D1_RENDER_TARGET_PROPERTIES@@ABUD2D1_HWND_RENDER_TARGET_PROPERTIES@@PAPAUID2D1HwndRenderTarget@@@Z ; ID2D1Factory::CreateHwndRenderTarget
	push	eax
	call	?ThrowIfFailed@DX@@YAXJ@Z		; DX::ThrowIfFailed
	add	esp, 4
; Line 56
	pop	edi
	pop	esi
	mov	ecx, DWORD PTR __$ArrayPad$[ebp]
	xor	ecx, ebp
	call	@__security_check_cookie@4
	add	esp, 108				; 0000006cH
	cmp	ebp, esp
	call	__RTC_CheckEsp
	mov	esp, ebp
	pop	ebp
	ret	0
?InitDirect2D@@YAXAAVWindow@@@Z ENDP			; InitDirect2D
_TEXT	ENDS
; Function compile flags: /Odtp /RTCsu
;	COMDAT ?ThrowIfFailed@DX@@YAXJ@Z
_TEXT	SEGMENT
$T1 = -16						; size = 16
_hr$ = 8						; size = 4
?ThrowIfFailed@DX@@YAXJ@Z PROC				; DX::ThrowIfFailed, COMDAT
; File e:\test\direct2d_test\d2d_code.cpp
; Line 30
	push	ebp
	mov	ebp, esp
	sub	esp, 16					; 00000010H
	mov	eax, -858993460				; ccccccccH
	mov	DWORD PTR [ebp-16], eax
	mov	DWORD PTR [ebp-12], eax
	mov	DWORD PTR [ebp-8], eax
	mov	DWORD PTR [ebp-4], eax
	mov	ecx, OFFSET __5BC57B37_d2d_code@cpp
	call	@__CheckForDebuggerJustMyCode@4
; Line 31
	cmp	DWORD PTR _hr$[ebp], 0
	jge	SHORT $LN3@ThrowIfFai
; Line 33
	mov	eax, DWORD PTR _hr$[ebp]
	push	eax
	lea	ecx, DWORD PTR $T1[ebp]
	call	??0com_exception@DX@@QAE@J@Z		; DX::com_exception::com_exception
	push	OFFSET __TI2?AVcom_exception@DX@@
	lea	ecx, DWORD PTR $T1[ebp]
	push	ecx
	call	__CxxThrowException@8
$LN3@ThrowIfFai:
; Line 35
	add	esp, 16					; 00000010H
	cmp	ebp, esp
	call	__RTC_CheckEsp
	mov	esp, ebp
	pop	ebp
	ret	0
?ThrowIfFailed@DX@@YAXJ@Z ENDP				; DX::ThrowIfFailed
_TEXT	ENDS
; Function compile flags: /Odtp /RTCsu
;	COMDAT ??$sprintf_s@$0EA@@@YAHAAY0EA@DPBDZZ
_TEXT	SEGMENT
__ArgList$ = -4						; size = 4
__Buffer$ = 8						; size = 4
__Format$ = 12						; size = 4
??$sprintf_s@$0EA@@@YAHAAY0EA@DPBDZZ PROC		; sprintf_s<64>, COMDAT
; File c:\program files (x86)\windows kits\10\include\10.0.17763.0\ucrt\stdio.h
; Line 1858
	push	ebp
	mov	ebp, esp
	sub	esp, 8
	mov	DWORD PTR [ebp-8], -858993460		; ccccccccH
	mov	DWORD PTR [ebp-4], -858993460		; ccccccccH
	mov	ecx, OFFSET __A452D4A0_stdio@h
	call	@__CheckForDebuggerJustMyCode@4
; Line 1853
	lea	eax, DWORD PTR __Format$[ebp+4]
	mov	DWORD PTR __ArgList$[ebp], eax
	mov	ecx, DWORD PTR __ArgList$[ebp]
	push	ecx
	mov	edx, DWORD PTR __Format$[ebp]
	push	edx
	push	64					; 00000040H
	mov	eax, DWORD PTR __Buffer$[ebp]
	push	eax
	call	_vsprintf_s
	add	esp, 16					; 00000010H
	add	esp, 8
	cmp	ebp, esp
	call	__RTC_CheckEsp
	mov	esp, ebp
	pop	ebp
	ret	0
??$sprintf_s@$0EA@@@YAHAAY0EA@DPBDZZ ENDP		; sprintf_s<64>
_TEXT	ENDS
; Function compile flags: /Odtp /RTCsu
;	COMDAT ??_Gcom_exception@DX@@UAEPAXI@Z
_TEXT	SEGMENT
_this$ = -4						; size = 4
___flags$ = 8						; size = 4
??_Gcom_exception@DX@@UAEPAXI@Z PROC			; DX::com_exception::`scalar deleting destructor', COMDAT
; _this$ = ecx
	push	ebp
	mov	ebp, esp
	push	ecx
	mov	DWORD PTR [ebp-4], -858993460		; ccccccccH
	mov	DWORD PTR _this$[ebp], ecx
	mov	ecx, DWORD PTR _this$[ebp]
	call	??1com_exception@DX@@UAE@XZ
	mov	eax, DWORD PTR ___flags$[ebp]
	and	eax, 1
	je	SHORT $LN2@scalar
	push	16					; 00000010H
	mov	ecx, DWORD PTR _this$[ebp]
	push	ecx
	call	??3@YAXPAXI@Z				; operator delete
	add	esp, 8
$LN2@scalar:
	mov	eax, DWORD PTR _this$[ebp]
	add	esp, 4
	cmp	ebp, esp
	call	__RTC_CheckEsp
	mov	esp, ebp
	pop	ebp
	ret	4
??_Gcom_exception@DX@@UAEPAXI@Z ENDP			; DX::com_exception::`scalar deleting destructor'
_TEXT	ENDS
; Function compile flags: /Odtp /RTCsu
;	COMDAT ??0com_exception@DX@@QAE@ABV01@@Z
_TEXT	SEGMENT
_this$ = -4						; size = 4
___that$ = 8						; size = 4
??0com_exception@DX@@QAE@ABV01@@Z PROC			; DX::com_exception::com_exception, COMDAT
; _this$ = ecx
	push	ebp
	mov	ebp, esp
	push	ecx
	mov	DWORD PTR [ebp-4], -858993460		; ccccccccH
	mov	DWORD PTR _this$[ebp], ecx
	mov	eax, DWORD PTR ___that$[ebp]
	push	eax
	mov	ecx, DWORD PTR _this$[ebp]
	call	??0exception@std@@QAE@ABV01@@Z		; std::exception::exception
	mov	ecx, DWORD PTR _this$[ebp]
	mov	DWORD PTR [ecx], OFFSET ??_7com_exception@DX@@6B@
	mov	edx, DWORD PTR _this$[ebp]
	mov	eax, DWORD PTR ___that$[ebp]
	mov	ecx, DWORD PTR [eax+12]
	mov	DWORD PTR [edx+12], ecx
	mov	eax, DWORD PTR _this$[ebp]
	add	esp, 4
	cmp	ebp, esp
	call	__RTC_CheckEsp
	mov	esp, ebp
	pop	ebp
	ret	4
??0com_exception@DX@@QAE@ABV01@@Z ENDP			; DX::com_exception::com_exception
_TEXT	ENDS
; Function compile flags: /Odtp /RTCsu
;	COMDAT ??1com_exception@DX@@UAE@XZ
_TEXT	SEGMENT
_this$ = -4						; size = 4
??1com_exception@DX@@UAE@XZ PROC			; DX::com_exception::~com_exception, COMDAT
; _this$ = ecx
	push	ebp
	mov	ebp, esp
	push	ecx
	mov	DWORD PTR [ebp-4], -858993460		; ccccccccH
	mov	DWORD PTR _this$[ebp], ecx
	mov	ecx, DWORD PTR _this$[ebp]
	call	??1exception@std@@UAE@XZ		; std::exception::~exception
	add	esp, 4
	cmp	ebp, esp
	call	__RTC_CheckEsp
	mov	esp, ebp
	pop	ebp
	ret	0
??1com_exception@DX@@UAE@XZ ENDP			; DX::com_exception::~com_exception
_TEXT	ENDS
; Function compile flags: /Odtp /RTCsu
;	COMDAT ?what@com_exception@DX@@UBEPBDXZ
_TEXT	SEGMENT
_this$ = -4						; size = 4
?what@com_exception@DX@@UBEPBDXZ PROC			; DX::com_exception::what, COMDAT
; _this$ = ecx
; File e:\test\direct2d_test\d2d_code.cpp
; Line 17
	push	ebp
	mov	ebp, esp
	push	ecx
	mov	DWORD PTR [ebp-4], -858993460		; ccccccccH
	mov	DWORD PTR _this$[ebp], ecx
	mov	ecx, OFFSET __5BC57B37_d2d_code@cpp
	call	@__CheckForDebuggerJustMyCode@4
; Line 19
	mov	eax, DWORD PTR _this$[ebp]
	mov	ecx, DWORD PTR [eax+12]
	push	ecx
	push	OFFSET ??_C@_0BN@HGKPNCEI@Failure?5with?5HRESULT?5of?5?$CF08X@
	push	OFFSET ?s_str@?1??what@com_exception@DX@@UBEPBDXZ@4PADA ; `DX::com_exception::what'::`2'::s_str
	call	??$sprintf_s@$0EA@@@YAHAAY0EA@DPBDZZ	; sprintf_s<64>
	add	esp, 12					; 0000000cH
; Line 21
	mov	eax, OFFSET ?s_str@?1??what@com_exception@DX@@UBEPBDXZ@4PADA ; `DX::com_exception::what'::`2'::s_str
; Line 22
	add	esp, 4
	cmp	ebp, esp
	call	__RTC_CheckEsp
	mov	esp, ebp
	pop	ebp
	ret	0
?what@com_exception@DX@@UBEPBDXZ ENDP			; DX::com_exception::what
_TEXT	ENDS
; Function compile flags: /Odtp /RTCsu
;	COMDAT ??0com_exception@DX@@QAE@J@Z
_TEXT	SEGMENT
_this$ = -4						; size = 4
_hr$ = 8						; size = 4
??0com_exception@DX@@QAE@J@Z PROC			; DX::com_exception::com_exception, COMDAT
; _this$ = ecx
; File e:\test\direct2d_test\d2d_code.cpp
; Line 14
	push	ebp
	mov	ebp, esp
	push	ecx
	mov	DWORD PTR [ebp-4], -858993460		; ccccccccH
	mov	DWORD PTR _this$[ebp], ecx
	mov	ecx, OFFSET __5BC57B37_d2d_code@cpp
	call	@__CheckForDebuggerJustMyCode@4
	mov	ecx, DWORD PTR _this$[ebp]
	call	??0exception@std@@QAE@XZ		; std::exception::exception
	mov	eax, DWORD PTR _this$[ebp]
	mov	DWORD PTR [eax], OFFSET ??_7com_exception@DX@@6B@
	mov	ecx, DWORD PTR _this$[ebp]
	mov	edx, DWORD PTR _hr$[ebp]
	mov	DWORD PTR [ecx+12], edx
	mov	eax, DWORD PTR _this$[ebp]
	add	esp, 4
	cmp	ebp, esp
	call	__RTC_CheckEsp
	mov	esp, ebp
	pop	ebp
	ret	4
??0com_exception@DX@@QAE@J@Z ENDP			; DX::com_exception::com_exception
_TEXT	ENDS
; Function compile flags: /Odtp /RTCsu
;	COMDAT ??_Gexception@std@@UAEPAXI@Z
_TEXT	SEGMENT
_this$ = -4						; size = 4
___flags$ = 8						; size = 4
??_Gexception@std@@UAEPAXI@Z PROC			; std::exception::`scalar deleting destructor', COMDAT
; _this$ = ecx
	push	ebp
	mov	ebp, esp
	push	ecx
	mov	DWORD PTR [ebp-4], -858993460		; ccccccccH
	mov	DWORD PTR _this$[ebp], ecx
	mov	ecx, DWORD PTR _this$[ebp]
	call	??1exception@std@@UAE@XZ		; std::exception::~exception
	mov	eax, DWORD PTR ___flags$[ebp]
	and	eax, 1
	je	SHORT $LN2@scalar
	push	12					; 0000000cH
	mov	ecx, DWORD PTR _this$[ebp]
	push	ecx
	call	??3@YAXPAXI@Z				; operator delete
	add	esp, 8
$LN2@scalar:
	mov	eax, DWORD PTR _this$[ebp]
	add	esp, 4
	cmp	ebp, esp
	call	__RTC_CheckEsp
	mov	esp, ebp
	pop	ebp
	ret	4
??_Gexception@std@@UAEPAXI@Z ENDP			; std::exception::`scalar deleting destructor'
_TEXT	ENDS
; Function compile flags: /Odtp /RTCsu
;	COMDAT ?what@exception@std@@UBEPBDXZ
_TEXT	SEGMENT
tv69 = -8						; size = 4
_this$ = -4						; size = 4
?what@exception@std@@UBEPBDXZ PROC			; std::exception::what, COMDAT
; _this$ = ecx
; File c:\program files (x86)\microsoft visual studio\2017\community\vc\tools\msvc\14.16.27023\include\vcruntime_exception.h
; Line 90
	push	ebp
	mov	ebp, esp
	sub	esp, 8
	mov	DWORD PTR [ebp-8], -858993460		; ccccccccH
	mov	DWORD PTR [ebp-4], -858993460		; ccccccccH
	mov	DWORD PTR _this$[ebp], ecx
	mov	ecx, OFFSET __9BB4E194_vcruntime_exception@h
	call	@__CheckForDebuggerJustMyCode@4
; Line 91
	mov	eax, DWORD PTR _this$[ebp]
	cmp	DWORD PTR [eax+4], 0
	je	SHORT $LN3@what
	mov	ecx, DWORD PTR _this$[ebp]
	mov	edx, DWORD PTR [ecx+4]
	mov	DWORD PTR tv69[ebp], edx
	jmp	SHORT $LN4@what
$LN3@what:
	mov	DWORD PTR tv69[ebp], OFFSET ??_C@_0BC@EOODALEL@Unknown?5exception@
$LN4@what:
	mov	eax, DWORD PTR tv69[ebp]
; Line 92
	add	esp, 8
	cmp	ebp, esp
	call	__RTC_CheckEsp
	mov	esp, ebp
	pop	ebp
	ret	0
?what@exception@std@@UBEPBDXZ ENDP			; std::exception::what
_TEXT	ENDS
; Function compile flags: /Odtp /RTCsu
;	COMDAT ??1exception@std@@UAE@XZ
_TEXT	SEGMENT
_this$ = -16						; size = 4
__$EHRec$ = -12						; size = 12
??1exception@std@@UAE@XZ PROC				; std::exception::~exception, COMDAT
; _this$ = ecx
; File c:\program files (x86)\microsoft visual studio\2017\community\vc\tools\msvc\14.16.27023\include\vcruntime_exception.h
; Line 85
	push	ebp
	mov	ebp, esp
	push	-1
	push	__ehhandler$??1exception@std@@UAE@XZ
	mov	eax, DWORD PTR fs:0
	push	eax
	push	ecx
	mov	DWORD PTR [ebp-16], -858993460		; ccccccccH
	mov	eax, DWORD PTR ___security_cookie
	xor	eax, ebp
	push	eax
	lea	eax, DWORD PTR __$EHRec$[ebp]
	mov	DWORD PTR fs:0, eax
	mov	DWORD PTR _this$[ebp], ecx
	mov	ecx, OFFSET __9BB4E194_vcruntime_exception@h
	call	@__CheckForDebuggerJustMyCode@4
	mov	eax, DWORD PTR _this$[ebp]
	mov	DWORD PTR [eax], OFFSET ??_7exception@std@@6B@
; Line 86
	mov	ecx, DWORD PTR _this$[ebp]
	add	ecx, 4
	push	ecx
	call	___std_exception_destroy
	add	esp, 4
; Line 87
	mov	ecx, DWORD PTR __$EHRec$[ebp]
	mov	DWORD PTR fs:0, ecx
	pop	ecx
	add	esp, 16					; 00000010H
	cmp	ebp, esp
	call	__RTC_CheckEsp
	mov	esp, ebp
	pop	ebp
	ret	0
_TEXT	ENDS
;	COMDAT text$x
text$x	SEGMENT
__ehhandler$??1exception@std@@UAE@XZ:
	mov	edx, DWORD PTR [esp+8]
	lea	eax, DWORD PTR [edx+12]
	mov	ecx, DWORD PTR [edx-8]
	xor	ecx, eax
	call	@__security_check_cookie@4
	mov	eax, OFFSET __ehfuncinfo$??1exception@std@@UAE@XZ
	jmp	___CxxFrameHandler3
text$x	ENDS
??1exception@std@@UAE@XZ ENDP				; std::exception::~exception
; Function compile flags: /Odtp /RTCsu
;	COMDAT ??0exception@std@@QAE@ABV01@@Z
_TEXT	SEGMENT
_this$ = -16						; size = 4
__$EHRec$ = -12						; size = 12
__Other$ = 8						; size = 4
??0exception@std@@QAE@ABV01@@Z PROC			; std::exception::exception, COMDAT
; _this$ = ecx
; File c:\program files (x86)\microsoft visual studio\2017\community\vc\tools\msvc\14.16.27023\include\vcruntime_exception.h
; Line 68
	push	ebp
	mov	ebp, esp
	push	-1
	push	__ehhandler$??0exception@std@@QAE@ABV01@@Z
	mov	eax, DWORD PTR fs:0
	push	eax
	push	ecx
	mov	DWORD PTR [ebp-16], -858993460		; ccccccccH
	mov	eax, DWORD PTR ___security_cookie
	xor	eax, ebp
	push	eax
	lea	eax, DWORD PTR __$EHRec$[ebp]
	mov	DWORD PTR fs:0, eax
	mov	DWORD PTR _this$[ebp], ecx
	mov	ecx, OFFSET __9BB4E194_vcruntime_exception@h
	call	@__CheckForDebuggerJustMyCode@4
	mov	eax, DWORD PTR _this$[ebp]
	mov	DWORD PTR [eax], OFFSET ??_7exception@std@@6B@
; Line 67
	xor	ecx, ecx
	mov	edx, DWORD PTR _this$[ebp]
	add	edx, 4
	mov	DWORD PTR [edx], ecx
	mov	DWORD PTR [edx+4], ecx
; Line 69
	mov	eax, DWORD PTR _this$[ebp]
	add	eax, 4
	push	eax
	mov	ecx, DWORD PTR __Other$[ebp]
	add	ecx, 4
	push	ecx
	call	___std_exception_copy
	add	esp, 8
; Line 70
	mov	eax, DWORD PTR _this$[ebp]
	mov	ecx, DWORD PTR __$EHRec$[ebp]
	mov	DWORD PTR fs:0, ecx
	pop	ecx
	add	esp, 16					; 00000010H
	cmp	ebp, esp
	call	__RTC_CheckEsp
	mov	esp, ebp
	pop	ebp
	ret	4
_TEXT	ENDS
;	COMDAT text$x
text$x	SEGMENT
__ehhandler$??0exception@std@@QAE@ABV01@@Z:
	mov	edx, DWORD PTR [esp+8]
	lea	eax, DWORD PTR [edx+12]
	mov	ecx, DWORD PTR [edx-8]
	xor	ecx, eax
	call	@__security_check_cookie@4
	mov	eax, OFFSET __ehfuncinfo$??0exception@std@@QAE@ABV01@@Z
	jmp	___CxxFrameHandler3
text$x	ENDS
??0exception@std@@QAE@ABV01@@Z ENDP			; std::exception::exception
; Function compile flags: /Odtp /RTCsu
;	COMDAT ??0exception@std@@QAE@XZ
_TEXT	SEGMENT
_this$ = -16						; size = 4
__$EHRec$ = -12						; size = 12
??0exception@std@@QAE@XZ PROC				; std::exception::exception, COMDAT
; _this$ = ecx
; File c:\program files (x86)\microsoft visual studio\2017\community\vc\tools\msvc\14.16.27023\include\vcruntime_exception.h
; Line 50
	push	ebp
	mov	ebp, esp
	push	-1
	push	__ehhandler$??0exception@std@@QAE@XZ
	mov	eax, DWORD PTR fs:0
	push	eax
	push	ecx
	mov	DWORD PTR [ebp-16], -858993460		; ccccccccH
	mov	eax, DWORD PTR ___security_cookie
	xor	eax, ebp
	push	eax
	lea	eax, DWORD PTR __$EHRec$[ebp]
	mov	DWORD PTR fs:0, eax
	mov	DWORD PTR _this$[ebp], ecx
	mov	ecx, OFFSET __9BB4E194_vcruntime_exception@h
	call	@__CheckForDebuggerJustMyCode@4
	mov	eax, DWORD PTR _this$[ebp]
	mov	DWORD PTR [eax], OFFSET ??_7exception@std@@6B@
; Line 49
	xor	ecx, ecx
	mov	edx, DWORD PTR _this$[ebp]
	add	edx, 4
	mov	DWORD PTR [edx], ecx
	mov	DWORD PTR [edx+4], ecx
; Line 51
	mov	eax, DWORD PTR _this$[ebp]
	mov	ecx, DWORD PTR __$EHRec$[ebp]
	mov	DWORD PTR fs:0, ecx
	pop	ecx
	add	esp, 16					; 00000010H
	cmp	ebp, esp
	call	__RTC_CheckEsp
	mov	esp, ebp
	pop	ebp
	ret	0
_TEXT	ENDS
;	COMDAT text$x
text$x	SEGMENT
__ehhandler$??0exception@std@@QAE@XZ:
	mov	edx, DWORD PTR [esp+8]
	lea	eax, DWORD PTR [edx+12]
	mov	ecx, DWORD PTR [edx-8]
	xor	ecx, eax
	call	@__security_check_cookie@4
	mov	eax, OFFSET __ehfuncinfo$??0exception@std@@QAE@XZ
	jmp	___CxxFrameHandler3
text$x	ENDS
??0exception@std@@QAE@XZ ENDP				; std::exception::exception
; Function compile flags: /Odtp /RTCsu
;	COMDAT ?D2D1CreateFactory@@YAJW4D2D1_FACTORY_TYPE@@ABU_GUID@@PAPAX@Z
_TEXT	SEGMENT
_factoryType$ = 8					; size = 4
_riid$ = 12						; size = 4
_factory$ = 16						; size = 4
?D2D1CreateFactory@@YAJW4D2D1_FACTORY_TYPE@@ABU_GUID@@PAPAX@Z PROC ; D2D1CreateFactory, COMDAT
; File c:\program files (x86)\windows kits\10\include\10.0.17763.0\um\d2d1.h
; Line 3723
	push	ebp
	mov	ebp, esp
	mov	ecx, OFFSET __2D95B4C2_d2d1@h
	call	@__CheckForDebuggerJustMyCode@4
; Line 3724
	mov	eax, DWORD PTR _factory$[ebp]
	push	eax
	push	0
	mov	ecx, DWORD PTR _riid$[ebp]
	push	ecx
	mov	edx, DWORD PTR _factoryType$[ebp]
	push	edx
	call	_D2D1CreateFactory@16
; Line 3730
	cmp	ebp, esp
	call	__RTC_CheckEsp
	pop	ebp
	ret	0
?D2D1CreateFactory@@YAJW4D2D1_FACTORY_TYPE@@ABU_GUID@@PAPAX@Z ENDP ; D2D1CreateFactory
_TEXT	ENDS
; Function compile flags: /Odtp /RTCsu
;	COMDAT ?Init@ColorF@D2D1@@AAEXIM@Z
_TEXT	SEGMENT
tv152 = -40						; size = 8
tv149 = -32						; size = 4
tv142 = -28						; size = 8
tv139 = -20						; size = 4
tv132 = -16						; size = 8
tv129 = -8						; size = 4
_this$ = -4						; size = 4
_rgb$ = 8						; size = 4
_alpha$ = 12						; size = 4
?Init@ColorF@D2D1@@AAEXIM@Z PROC			; D2D1::ColorF::Init, COMDAT
; _this$ = ecx
; File c:\program files (x86)\windows kits\10\include\10.0.17763.0\um\d2d1helper.h
; Line 713
	push	ebp
	mov	ebp, esp
	sub	esp, 40					; 00000028H
	push	edi
	push	ecx
	lea	edi, DWORD PTR [ebp-40]
	mov	ecx, 10					; 0000000aH
	mov	eax, -858993460				; ccccccccH
	rep stosd
	pop	ecx
	mov	DWORD PTR _this$[ebp], ecx
	mov	ecx, OFFSET __184E0B43_d2d1helper@h
	call	@__CheckForDebuggerJustMyCode@4
; Line 714
	mov	eax, DWORD PTR _rgb$[ebp]
	and	eax, 16711680				; 00ff0000H
	shr	eax, 16					; 00000010H
	mov	DWORD PTR tv129[ebp], eax
	cvtsi2sd xmm0, DWORD PTR tv129[ebp]
	mov	ecx, DWORD PTR tv129[ebp]
	shr	ecx, 31					; 0000001fH
	addsd	xmm0, QWORD PTR __xmm@41f00000000000000000000000000000[ecx*8]
	movsd	QWORD PTR tv132[ebp], xmm0
	cvtsd2ss xmm0, QWORD PTR tv132[ebp]
	divss	xmm0, DWORD PTR __real@437f0000
	mov	edx, DWORD PTR _this$[ebp]
	movss	DWORD PTR [edx], xmm0
; Line 715
	mov	eax, DWORD PTR _rgb$[ebp]
	and	eax, 65280				; 0000ff00H
	shr	eax, 8
	mov	DWORD PTR tv139[ebp], eax
	cvtsi2sd xmm0, DWORD PTR tv139[ebp]
	mov	ecx, DWORD PTR tv139[ebp]
	shr	ecx, 31					; 0000001fH
	addsd	xmm0, QWORD PTR __xmm@41f00000000000000000000000000000[ecx*8]
	movsd	QWORD PTR tv142[ebp], xmm0
	cvtsd2ss xmm0, QWORD PTR tv142[ebp]
	divss	xmm0, DWORD PTR __real@437f0000
	mov	edx, DWORD PTR _this$[ebp]
	movss	DWORD PTR [edx+4], xmm0
; Line 716
	mov	eax, DWORD PTR _rgb$[ebp]
	and	eax, 255				; 000000ffH
	mov	DWORD PTR tv149[ebp], eax
	cvtsi2sd xmm0, DWORD PTR tv149[ebp]
	mov	ecx, DWORD PTR tv149[ebp]
	shr	ecx, 31					; 0000001fH
	addsd	xmm0, QWORD PTR __xmm@41f00000000000000000000000000000[ecx*8]
	movsd	QWORD PTR tv152[ebp], xmm0
	cvtsd2ss xmm0, QWORD PTR tv152[ebp]
	divss	xmm0, DWORD PTR __real@437f0000
	mov	edx, DWORD PTR _this$[ebp]
	movss	DWORD PTR [edx+8], xmm0
; Line 717
	mov	eax, DWORD PTR _this$[ebp]
	movss	xmm0, DWORD PTR _alpha$[ebp]
	movss	DWORD PTR [eax+12], xmm0
; Line 718
	pop	edi
	add	esp, 40					; 00000028H
	cmp	ebp, esp
	call	__RTC_CheckEsp
	mov	esp, ebp
	pop	ebp
	ret	8
?Init@ColorF@D2D1@@AAEXIM@Z ENDP			; D2D1::ColorF::Init
_TEXT	ENDS
; Function compile flags: /Odtp /RTCsu
;	COMDAT ??0ColorF@D2D1@@QAE@W4Enum@01@M@Z
_TEXT	SEGMENT
_this$ = -4						; size = 4
_knownColor$ = 8					; size = 4
_a$ = 12						; size = 4
??0ColorF@D2D1@@QAE@W4Enum@01@M@Z PROC			; D2D1::ColorF::ColorF, COMDAT
; _this$ = ecx
; File c:\program files (x86)\windows kits\10\include\10.0.17763.0\um\d2d1helper.h
; Line 681
	push	ebp
	mov	ebp, esp
	push	ecx
	mov	DWORD PTR [ebp-4], -858993460		; ccccccccH
	mov	DWORD PTR _this$[ebp], ecx
	mov	ecx, OFFSET __184E0B43_d2d1helper@h
	call	@__CheckForDebuggerJustMyCode@4
; Line 686
	push	ecx
	movss	xmm0, DWORD PTR _a$[ebp]
	movss	DWORD PTR [esp], xmm0
	mov	eax, DWORD PTR _knownColor$[ebp]
	push	eax
	mov	ecx, DWORD PTR _this$[ebp]
	call	?Init@ColorF@D2D1@@AAEXIM@Z		; D2D1::ColorF::Init
; Line 687
	mov	eax, DWORD PTR _this$[ebp]
	add	esp, 4
	cmp	ebp, esp
	call	__RTC_CheckEsp
	mov	esp, ebp
	pop	ebp
	ret	8
??0ColorF@D2D1@@QAE@W4Enum@01@M@Z ENDP			; D2D1::ColorF::ColorF
_TEXT	ENDS
; Function compile flags: /Odtp /RTCsu
;	COMDAT ?HwndRenderTargetProperties@D2D1@@YA?AUD2D1_HWND_RENDER_TARGET_PROPERTIES@@PAUHWND__@@UD2D_SIZE_U@@W4D2D1_PRESENT_OPTIONS@@@Z
_TEXT	SEGMENT
_hwndRenderTargetProperties$ = -20			; size = 16
$T1 = 8							; size = 4
_hwnd$ = 12						; size = 4
_pixelSize$ = 16					; size = 8
_presentOptions$ = 24					; size = 4
?HwndRenderTargetProperties@D2D1@@YA?AUD2D1_HWND_RENDER_TARGET_PROPERTIES@@PAUHWND__@@UD2D_SIZE_U@@W4D2D1_PRESENT_OPTIONS@@@Z PROC ; D2D1::HwndRenderTargetProperties, COMDAT
; File c:\program files (x86)\windows kits\10\include\10.0.17763.0\um\d2d1helper.h
; Line 456
	push	ebp
	mov	ebp, esp
	sub	esp, 24					; 00000018H
	mov	eax, -858993460				; ccccccccH
	mov	DWORD PTR [ebp-24], eax
	mov	DWORD PTR [ebp-20], eax
	mov	DWORD PTR [ebp-16], eax
	mov	DWORD PTR [ebp-12], eax
	mov	DWORD PTR [ebp-8], eax
	mov	DWORD PTR [ebp-4], eax
	mov	ecx, OFFSET __184E0B43_d2d1helper@h
	call	@__CheckForDebuggerJustMyCode@4
; Line 459
	mov	eax, DWORD PTR _hwnd$[ebp]
	mov	DWORD PTR _hwndRenderTargetProperties$[ebp], eax
; Line 460
	mov	ecx, DWORD PTR _pixelSize$[ebp]
	mov	DWORD PTR _hwndRenderTargetProperties$[ebp+4], ecx
	mov	edx, DWORD PTR _pixelSize$[ebp+4]
	mov	DWORD PTR _hwndRenderTargetProperties$[ebp+8], edx
; Line 461
	mov	eax, DWORD PTR _presentOptions$[ebp]
	mov	DWORD PTR _hwndRenderTargetProperties$[ebp+12], eax
; Line 463
	mov	ecx, DWORD PTR $T1[ebp]
	mov	edx, DWORD PTR _hwndRenderTargetProperties$[ebp]
	mov	DWORD PTR [ecx], edx
	mov	eax, DWORD PTR _hwndRenderTargetProperties$[ebp+4]
	mov	DWORD PTR [ecx+4], eax
	mov	edx, DWORD PTR _hwndRenderTargetProperties$[ebp+8]
	mov	DWORD PTR [ecx+8], edx
	mov	eax, DWORD PTR _hwndRenderTargetProperties$[ebp+12]
	mov	DWORD PTR [ecx+12], eax
	mov	eax, DWORD PTR $T1[ebp]
; Line 464
	push	edx
	mov	ecx, ebp
	push	eax
	lea	edx, DWORD PTR $LN5@HwndRender
	call	@_RTC_CheckStackVars@8
	pop	eax
	pop	edx
	add	esp, 24					; 00000018H
	cmp	ebp, esp
	call	__RTC_CheckEsp
	mov	esp, ebp
	pop	ebp
	ret	0
	npad	1
$LN5@HwndRender:
	DD	1
	DD	$LN4@HwndRender
$LN4@HwndRender:
	DD	-20					; ffffffecH
	DD	16					; 00000010H
	DD	$LN3@HwndRender
$LN3@HwndRender:
	DB	104					; 00000068H
	DB	119					; 00000077H
	DB	110					; 0000006eH
	DB	100					; 00000064H
	DB	82					; 00000052H
	DB	101					; 00000065H
	DB	110					; 0000006eH
	DB	100					; 00000064H
	DB	101					; 00000065H
	DB	114					; 00000072H
	DB	84					; 00000054H
	DB	97					; 00000061H
	DB	114					; 00000072H
	DB	103					; 00000067H
	DB	101					; 00000065H
	DB	116					; 00000074H
	DB	80					; 00000050H
	DB	114					; 00000072H
	DB	111					; 0000006fH
	DB	112					; 00000070H
	DB	101					; 00000065H
	DB	114					; 00000072H
	DB	116					; 00000074H
	DB	105					; 00000069H
	DB	101					; 00000065H
	DB	115					; 00000073H
	DB	0
?HwndRenderTargetProperties@D2D1@@YA?AUD2D1_HWND_RENDER_TARGET_PROPERTIES@@PAUHWND__@@UD2D_SIZE_U@@W4D2D1_PRESENT_OPTIONS@@@Z ENDP ; D2D1::HwndRenderTargetProperties
_TEXT	ENDS
; Function compile flags: /Odtp /RTCsu
;	COMDAT ?RenderTargetProperties@D2D1@@YA?AUD2D1_RENDER_TARGET_PROPERTIES@@W4D2D1_RENDER_TARGET_TYPE@@ABUD2D1_PIXEL_FORMAT@@MMW4D2D1_RENDER_TARGET_USAGE@@W4D2D1_FEATURE_LEVEL@@@Z
_TEXT	SEGMENT
_renderTargetProperties$ = -36				; size = 28
__$ArrayPad$ = -4					; size = 4
$T1 = 8							; size = 4
_type$ = 12						; size = 4
_pixelFormat$ = 16					; size = 4
_dpiX$ = 20						; size = 4
_dpiY$ = 24						; size = 4
_usage$ = 28						; size = 4
_minLevel$ = 32						; size = 4
?RenderTargetProperties@D2D1@@YA?AUD2D1_RENDER_TARGET_PROPERTIES@@W4D2D1_RENDER_TARGET_TYPE@@ABUD2D1_PIXEL_FORMAT@@MMW4D2D1_RENDER_TARGET_USAGE@@W4D2D1_FEATURE_LEVEL@@@Z PROC ; D2D1::RenderTargetProperties, COMDAT
; File c:\program files (x86)\windows kits\10\include\10.0.17763.0\um\d2d1helper.h
; Line 435
	push	ebp
	mov	ebp, esp
	sub	esp, 40					; 00000028H
	push	esi
	push	edi
	lea	edi, DWORD PTR [ebp-40]
	mov	ecx, 10					; 0000000aH
	mov	eax, -858993460				; ccccccccH
	rep stosd
	mov	eax, DWORD PTR ___security_cookie
	xor	eax, ebp
	mov	DWORD PTR __$ArrayPad$[ebp], eax
	mov	ecx, OFFSET __184E0B43_d2d1helper@h
	call	@__CheckForDebuggerJustMyCode@4
; Line 438
	mov	eax, DWORD PTR _type$[ebp]
	mov	DWORD PTR _renderTargetProperties$[ebp], eax
; Line 439
	mov	ecx, DWORD PTR _pixelFormat$[ebp]
	mov	edx, DWORD PTR [ecx]
	mov	eax, DWORD PTR [ecx+4]
	mov	DWORD PTR _renderTargetProperties$[ebp+4], edx
	mov	DWORD PTR _renderTargetProperties$[ebp+8], eax
; Line 440
	movss	xmm0, DWORD PTR _dpiX$[ebp]
	movss	DWORD PTR _renderTargetProperties$[ebp+12], xmm0
; Line 441
	movss	xmm0, DWORD PTR _dpiY$[ebp]
	movss	DWORD PTR _renderTargetProperties$[ebp+16], xmm0
; Line 442
	mov	ecx, DWORD PTR _usage$[ebp]
	mov	DWORD PTR _renderTargetProperties$[ebp+20], ecx
; Line 443
	mov	edx, DWORD PTR _minLevel$[ebp]
	mov	DWORD PTR _renderTargetProperties$[ebp+24], edx
; Line 445
	mov	ecx, 7
	lea	esi, DWORD PTR _renderTargetProperties$[ebp]
	mov	edi, DWORD PTR $T1[ebp]
	rep movsd
	mov	eax, DWORD PTR $T1[ebp]
; Line 446
	push	edx
	mov	ecx, ebp
	push	eax
	lea	edx, DWORD PTR $LN5@RenderTarg
	call	@_RTC_CheckStackVars@8
	pop	eax
	pop	edx
	pop	edi
	pop	esi
	mov	ecx, DWORD PTR __$ArrayPad$[ebp]
	xor	ecx, ebp
	call	@__security_check_cookie@4
	add	esp, 40					; 00000028H
	cmp	ebp, esp
	call	__RTC_CheckEsp
	mov	esp, ebp
	pop	ebp
	ret	0
	npad	2
$LN5@RenderTarg:
	DD	1
	DD	$LN4@RenderTarg
$LN4@RenderTarg:
	DD	-36					; ffffffdcH
	DD	28					; 0000001cH
	DD	$LN3@RenderTarg
$LN3@RenderTarg:
	DB	114					; 00000072H
	DB	101					; 00000065H
	DB	110					; 0000006eH
	DB	100					; 00000064H
	DB	101					; 00000065H
	DB	114					; 00000072H
	DB	84					; 00000054H
	DB	97					; 00000061H
	DB	114					; 00000072H
	DB	103					; 00000067H
	DB	101					; 00000065H
	DB	116					; 00000074H
	DB	80					; 00000050H
	DB	114					; 00000072H
	DB	111					; 0000006fH
	DB	112					; 00000070H
	DB	101					; 00000065H
	DB	114					; 00000072H
	DB	116					; 00000074H
	DB	105					; 00000069H
	DB	101					; 00000065H
	DB	115					; 00000073H
	DB	0
?RenderTargetProperties@D2D1@@YA?AUD2D1_RENDER_TARGET_PROPERTIES@@W4D2D1_RENDER_TARGET_TYPE@@ABUD2D1_PIXEL_FORMAT@@MMW4D2D1_RENDER_TARGET_USAGE@@W4D2D1_FEATURE_LEVEL@@@Z ENDP ; D2D1::RenderTargetProperties
_TEXT	ENDS
; Function compile flags: /Odtp /RTCsu
;	COMDAT ?PixelFormat@D2D1@@YA?AUD2D1_PIXEL_FORMAT@@W4DXGI_FORMAT@@W4D2D1_ALPHA_MODE@@@Z
_TEXT	SEGMENT
_pixelFormat$ = -12					; size = 8
_dxgiFormat$ = 8					; size = 4
_alphaMode$ = 12					; size = 4
?PixelFormat@D2D1@@YA?AUD2D1_PIXEL_FORMAT@@W4DXGI_FORMAT@@W4D2D1_ALPHA_MODE@@@Z PROC ; D2D1::PixelFormat, COMDAT
; File c:\program files (x86)\windows kits\10\include\10.0.17763.0\um\d2d1helper.h
; Line 391
	push	ebp
	mov	ebp, esp
	sub	esp, 16					; 00000010H
	mov	eax, -858993460				; ccccccccH
	mov	DWORD PTR [ebp-16], eax
	mov	DWORD PTR [ebp-12], eax
	mov	DWORD PTR [ebp-8], eax
	mov	DWORD PTR [ebp-4], eax
	mov	ecx, OFFSET __184E0B43_d2d1helper@h
	call	@__CheckForDebuggerJustMyCode@4
; Line 394
	mov	eax, DWORD PTR _dxgiFormat$[ebp]
	mov	DWORD PTR _pixelFormat$[ebp], eax
; Line 395
	mov	ecx, DWORD PTR _alphaMode$[ebp]
	mov	DWORD PTR _pixelFormat$[ebp+4], ecx
; Line 397
	mov	eax, DWORD PTR _pixelFormat$[ebp]
	mov	edx, DWORD PTR _pixelFormat$[ebp+4]
; Line 398
	push	edx
	mov	ecx, ebp
	push	eax
	lea	edx, DWORD PTR $LN5@PixelForma
	call	@_RTC_CheckStackVars@8
	pop	eax
	pop	edx
	add	esp, 16					; 00000010H
	cmp	ebp, esp
	call	__RTC_CheckEsp
	mov	esp, ebp
	pop	ebp
	ret	0
	npad	2
$LN5@PixelForma:
	DD	1
	DD	$LN4@PixelForma
$LN4@PixelForma:
	DD	-12					; fffffff4H
	DD	8
	DD	$LN3@PixelForma
$LN3@PixelForma:
	DB	112					; 00000070H
	DB	105					; 00000069H
	DB	120					; 00000078H
	DB	101					; 00000065H
	DB	108					; 0000006cH
	DB	70					; 00000046H
	DB	111					; 0000006fH
	DB	114					; 00000072H
	DB	109					; 0000006dH
	DB	97					; 00000061H
	DB	116					; 00000074H
	DB	0
?PixelFormat@D2D1@@YA?AUD2D1_PIXEL_FORMAT@@W4DXGI_FORMAT@@W4D2D1_ALPHA_MODE@@@Z ENDP ; D2D1::PixelFormat
_TEXT	ENDS
; Function compile flags: /Odtp /RTCsu
;	COMDAT ??$Size@I@D2D1@@YA?AUD2D_SIZE_U@@II@Z
_TEXT	SEGMENT
_size$ = -12						; size = 8
_width$ = 8						; size = 4
_height$ = 12						; size = 4
??$Size@I@D2D1@@YA?AUD2D_SIZE_U@@II@Z PROC		; D2D1::Size<unsigned int>, COMDAT
; File c:\program files (x86)\windows kits\10\include\10.0.17763.0\um\d2d1helper.h
; Line 113
	push	ebp
	mov	ebp, esp
	sub	esp, 16					; 00000010H
	mov	eax, -858993460				; ccccccccH
	mov	DWORD PTR [ebp-16], eax
	mov	DWORD PTR [ebp-12], eax
	mov	DWORD PTR [ebp-8], eax
	mov	DWORD PTR [ebp-4], eax
	mov	ecx, OFFSET __184E0B43_d2d1helper@h
	call	@__CheckForDebuggerJustMyCode@4
; Line 114
	mov	eax, DWORD PTR _width$[ebp]
	mov	DWORD PTR _size$[ebp], eax
	mov	ecx, DWORD PTR _height$[ebp]
	mov	DWORD PTR _size$[ebp+4], ecx
; Line 116
	mov	eax, DWORD PTR _size$[ebp]
	mov	edx, DWORD PTR _size$[ebp+4]
; Line 117
	push	edx
	mov	ecx, ebp
	push	eax
	lea	edx, DWORD PTR $LN5@Size
	call	@_RTC_CheckStackVars@8
	pop	eax
	pop	edx
	add	esp, 16					; 00000010H
	cmp	ebp, esp
	call	__RTC_CheckEsp
	mov	esp, ebp
	pop	ebp
	ret	0
	npad	2
$LN5@Size:
	DD	1
	DD	$LN4@Size
$LN4@Size:
	DD	-12					; fffffff4H
	DD	8
	DD	$LN3@Size
$LN3@Size:
	DB	115					; 00000073H
	DB	105					; 00000069H
	DB	122					; 0000007aH
	DB	101					; 00000065H
	DB	0
??$Size@I@D2D1@@YA?AUD2D_SIZE_U@@II@Z ENDP		; D2D1::Size<unsigned int>
_TEXT	ENDS
; Function compile flags: /Odtp /RTCsu
;	COMDAT ?SizeU@D2D1@@YA?AUD2D_SIZE_U@@II@Z
_TEXT	SEGMENT
$T1 = -8						; size = 8
_width$ = 8						; size = 4
_height$ = 12						; size = 4
?SizeU@D2D1@@YA?AUD2D_SIZE_U@@II@Z PROC			; D2D1::SizeU, COMDAT
; File c:\program files (x86)\windows kits\10\include\10.0.17763.0\um\d2d1helper.h
; Line 137
	push	ebp
	mov	ebp, esp
	sub	esp, 8
	mov	DWORD PTR [ebp-8], -858993460		; ccccccccH
	mov	DWORD PTR [ebp-4], -858993460		; ccccccccH
	mov	ecx, OFFSET __184E0B43_d2d1helper@h
	call	@__CheckForDebuggerJustMyCode@4
; Line 138
	mov	eax, DWORD PTR _height$[ebp]
	push	eax
	mov	ecx, DWORD PTR _width$[ebp]
	push	ecx
	call	??$Size@I@D2D1@@YA?AUD2D_SIZE_U@@II@Z	; D2D1::Size<unsigned int>
	add	esp, 8
	mov	DWORD PTR $T1[ebp], eax
	mov	DWORD PTR $T1[ebp+4], edx
	mov	eax, DWORD PTR $T1[ebp]
	mov	edx, DWORD PTR $T1[ebp+4]
; Line 139
	add	esp, 8
	cmp	ebp, esp
	call	__RTC_CheckEsp
	mov	esp, ebp
	pop	ebp
	ret	0
?SizeU@D2D1@@YA?AUD2D_SIZE_U@@II@Z ENDP			; D2D1::SizeU
_TEXT	ENDS
; Function compile flags: /Odtp /RTCsu
;	COMDAT ?CreateHwndRenderTarget@ID2D1Factory@@QAEJABUD2D1_RENDER_TARGET_PROPERTIES@@ABUD2D1_HWND_RENDER_TARGET_PROPERTIES@@PAPAUID2D1HwndRenderTarget@@@Z
_TEXT	SEGMENT
_this$ = -4						; size = 4
_renderTargetProperties$ = 8				; size = 4
_hwndRenderTargetProperties$ = 12			; size = 4
_hwndRenderTarget$ = 16					; size = 4
?CreateHwndRenderTarget@ID2D1Factory@@QAEJABUD2D1_RENDER_TARGET_PROPERTIES@@ABUD2D1_HWND_RENDER_TARGET_PROPERTIES@@PAPAUID2D1HwndRenderTarget@@@Z PROC ; ID2D1Factory::CreateHwndRenderTarget, COMDAT
; _this$ = ecx
; File c:\program files (x86)\windows kits\10\include\10.0.17763.0\um\d2d1.h
; Line 3547
	push	ebp
	mov	ebp, esp
	push	ecx
	push	esi
	mov	DWORD PTR [ebp-4], -858993460		; ccccccccH
	mov	DWORD PTR _this$[ebp], ecx
	mov	ecx, OFFSET __2D95B4C2_d2d1@h
	call	@__CheckForDebuggerJustMyCode@4
; Line 3548
	mov	esi, esp
	mov	eax, DWORD PTR _hwndRenderTarget$[ebp]
	push	eax
	mov	ecx, DWORD PTR _hwndRenderTargetProperties$[ebp]
	push	ecx
	mov	edx, DWORD PTR _renderTargetProperties$[ebp]
	push	edx
	mov	eax, DWORD PTR _this$[ebp]
	mov	ecx, DWORD PTR [eax]
	mov	edx, DWORD PTR _this$[ebp]
	push	edx
	mov	eax, DWORD PTR [ecx+56]
	call	eax
	cmp	esi, esp
	call	__RTC_CheckEsp
; Line 3549
	pop	esi
	add	esp, 4
	cmp	ebp, esp
	call	__RTC_CheckEsp
	mov	esp, ebp
	pop	ebp
	ret	12					; 0000000cH
?CreateHwndRenderTarget@ID2D1Factory@@QAEJABUD2D1_RENDER_TARGET_PROPERTIES@@ABUD2D1_HWND_RENDER_TARGET_PROPERTIES@@PAPAUID2D1HwndRenderTarget@@@Z ENDP ; ID2D1Factory::CreateHwndRenderTarget
_TEXT	ENDS
; Function compile flags: /Odtp /RTCsu
;	COMDAT ?Clear@ID2D1RenderTarget@@QAEXABU_D3DCOLORVALUE@@@Z
_TEXT	SEGMENT
_this$ = -4						; size = 4
_clearColor$ = 8					; size = 4
?Clear@ID2D1RenderTarget@@QAEXABU_D3DCOLORVALUE@@@Z PROC ; ID2D1RenderTarget::Clear, COMDAT
; _this$ = ecx
; File c:\program files (x86)\windows kits\10\include\10.0.17763.0\um\d2d1.h
; Line 3212
	push	ebp
	mov	ebp, esp
	push	ecx
	push	esi
	mov	DWORD PTR [ebp-4], -858993460		; ccccccccH
	mov	DWORD PTR _this$[ebp], ecx
	mov	ecx, OFFSET __2D95B4C2_d2d1@h
	call	@__CheckForDebuggerJustMyCode@4
; Line 3213
	mov	esi, esp
	mov	eax, DWORD PTR _clearColor$[ebp]
	push	eax
	mov	ecx, DWORD PTR _this$[ebp]
	mov	edx, DWORD PTR [ecx]
	mov	eax, DWORD PTR _this$[ebp]
	push	eax
	mov	ecx, DWORD PTR [edx+188]
	call	ecx
	cmp	esi, esp
	call	__RTC_CheckEsp
; Line 3214
	pop	esi
	add	esp, 4
	cmp	ebp, esp
	call	__RTC_CheckEsp
	mov	esp, ebp
	pop	ebp
	ret	4
?Clear@ID2D1RenderTarget@@QAEXABU_D3DCOLORVALUE@@@Z ENDP ; ID2D1RenderTarget::Clear
_TEXT	ENDS
; Function compile flags: /Odtp /RTCsu
;	COMDAT ??__Fg_mainwin@@YAXXZ
text$yd	SEGMENT
??__Fg_mainwin@@YAXXZ PROC				; `dynamic atexit destructor for 'g_mainwin'', COMDAT
	push	ebp
	mov	ebp, esp
	mov	ecx, OFFSET ?g_mainwin@@3VMainWin@@A	; g_mainwin
	call	??1MainWin@@QAE@XZ
	cmp	ebp, esp
	call	__RTC_CheckEsp
	pop	ebp
	ret	0
??__Fg_mainwin@@YAXXZ ENDP				; `dynamic atexit destructor for 'g_mainwin''
text$yd	ENDS
; Function compile flags: /Odtp /RTCsu
;	COMDAT ??__Eg_mainwin@@YAXXZ
text$di	SEGMENT
??__Eg_mainwin@@YAXXZ PROC				; `dynamic initializer for 'g_mainwin'', COMDAT
; File e:\test\direct2d_test\mainwin.cpp
; Line 22
	push	ebp
	mov	ebp, esp
	mov	ecx, OFFSET __D0535EE9_mainwin@cpp
	call	@__CheckForDebuggerJustMyCode@4
	mov	ecx, OFFSET ?g_mainwin@@3VMainWin@@A	; g_mainwin
	call	??0MainWin@@QAE@XZ			; MainWin::MainWin
	push	OFFSET ??__Fg_mainwin@@YAXXZ		; `dynamic atexit destructor for 'g_mainwin''
	call	_atexit
	add	esp, 4
	cmp	ebp, esp
	call	__RTC_CheckEsp
	pop	ebp
	ret	0
??__Eg_mainwin@@YAXXZ ENDP				; `dynamic initializer for 'g_mainwin''
text$di	ENDS
; Function compile flags: /Odtp /RTCsu
;	COMDAT ??1MainWin@@QAE@XZ
_TEXT	SEGMENT
_this$ = -4						; size = 4
??1MainWin@@QAE@XZ PROC					; MainWin::~MainWin, COMDAT
; _this$ = ecx
	push	ebp
	mov	ebp, esp
	push	ecx
	mov	DWORD PTR [ebp-4], -858993460		; ccccccccH
	mov	DWORD PTR _this$[ebp], ecx
	mov	ecx, DWORD PTR _this$[ebp]
	call	??1Window@@QAE@XZ			; Window::~Window
	add	esp, 4
	cmp	ebp, esp
	call	__RTC_CheckEsp
	mov	esp, ebp
	pop	ebp
	ret	0
??1MainWin@@QAE@XZ ENDP					; MainWin::~MainWin
_TEXT	ENDS
; Function compile flags: /Odtp /RTCsu
;	COMDAT ?WndProc@MainWin@@MAEJPAUHWND__@@IIJ@Z
_TEXT	SEGMENT
tv64 = -8						; size = 4
_this$ = -4						; size = 4
_hWnd$ = 8						; size = 4
_message$ = 12						; size = 4
_wParam$ = 16						; size = 4
_lParam$ = 20						; size = 4
?WndProc@MainWin@@MAEJPAUHWND__@@IIJ@Z PROC		; MainWin::WndProc, COMDAT
; _this$ = ecx
; File e:\test\direct2d_test\mainwin.cpp
; Line 13
	push	ebp
	mov	ebp, esp
	sub	esp, 8
	mov	DWORD PTR [ebp-8], -858993460		; ccccccccH
	mov	DWORD PTR [ebp-4], -858993460		; ccccccccH
	mov	DWORD PTR _this$[ebp], ecx
	mov	ecx, OFFSET __D0535EE9_mainwin@cpp
	call	@__CheckForDebuggerJustMyCode@4
; Line 14
	mov	eax, DWORD PTR _message$[ebp]
	mov	DWORD PTR tv64[ebp], eax
; Line 17
	xor	eax, eax
; Line 18
	add	esp, 8
	cmp	ebp, esp
	call	__RTC_CheckEsp
	mov	esp, ebp
	pop	ebp
	ret	16					; 00000010H
?WndProc@MainWin@@MAEJPAUHWND__@@IIJ@Z ENDP		; MainWin::WndProc
_TEXT	ENDS
; Function compile flags: /Odtp /RTCsu
;	COMDAT ??0MainWin@@QAE@XZ
_TEXT	SEGMENT
_this$ = -4						; size = 4
??0MainWin@@QAE@XZ PROC					; MainWin::MainWin, COMDAT
; _this$ = ecx
; File e:\test\direct2d_test\mainwin.cpp
; Line 9
	push	ebp
	mov	ebp, esp
	push	ecx
	mov	DWORD PTR [ebp-4], -858993460		; ccccccccH
	mov	DWORD PTR _this$[ebp], ecx
	mov	ecx, OFFSET __D0535EE9_mainwin@cpp
	call	@__CheckForDebuggerJustMyCode@4
	push	0
	mov	ecx, DWORD PTR _this$[ebp]
	call	??0Window@@QAE@PAUHINSTANCE__@@@Z	; Window::Window
	mov	eax, DWORD PTR _this$[ebp]
	mov	DWORD PTR [eax], OFFSET ??_7MainWin@@6B@
	mov	eax, DWORD PTR _this$[ebp]
	add	esp, 4
	cmp	ebp, esp
	call	__RTC_CheckEsp
	mov	esp, ebp
	pop	ebp
	ret	0
??0MainWin@@QAE@XZ ENDP					; MainWin::MainWin
_TEXT	ENDS
; Function compile flags: /Odtp /RTCsu
;	COMDAT ??$sprintf_s@$0IA@@@YAHAAY0IA@DPBDZZ
_TEXT	SEGMENT
__ArgList$ = -4						; size = 4
__Buffer$ = 8						; size = 4
__Format$ = 12						; size = 4
??$sprintf_s@$0IA@@@YAHAAY0IA@DPBDZZ PROC		; sprintf_s<128>, COMDAT
; File c:\program files (x86)\windows kits\10\include\10.0.17763.0\ucrt\stdio.h
; Line 1858
	push	ebp
	mov	ebp, esp
	sub	esp, 8
	mov	DWORD PTR [ebp-8], -858993460		; ccccccccH
	mov	DWORD PTR [ebp-4], -858993460		; ccccccccH
	mov	ecx, OFFSET __A452D4A0_stdio@h
	call	@__CheckForDebuggerJustMyCode@4
; Line 1853
	lea	eax, DWORD PTR __Format$[ebp+4]
	mov	DWORD PTR __ArgList$[ebp], eax
	mov	ecx, DWORD PTR __ArgList$[ebp]
	push	ecx
	mov	edx, DWORD PTR __Format$[ebp]
	push	edx
	push	128					; 00000080H
	mov	eax, DWORD PTR __Buffer$[ebp]
	push	eax
	call	_vsprintf_s
	add	esp, 16					; 00000010H
	add	esp, 8
	cmp	ebp, esp
	call	__RTC_CheckEsp
	mov	esp, ebp
	pop	ebp
	ret	0
??$sprintf_s@$0IA@@@YAHAAY0IA@DPBDZZ ENDP		; sprintf_s<128>
_TEXT	ENDS
; Function compile flags: /Odtp /RTCsu
_TEXT	SEGMENT
_this$ = -4						; size = 4
_hWnd$ = 8						; size = 4
_message$ = 12						; size = 4
_wParam$ = 16						; size = 4
_lParam$ = 20						; size = 4
?WndProc@Window@@MAEJPAUHWND__@@IIJ@Z PROC		; Window::WndProc
; _this$ = ecx
; File e:\test\direct2d_test\windowclass.cpp
; Line 169
	push	ebp
	mov	ebp, esp
	push	ecx
	push	esi
	mov	DWORD PTR [ebp-4], -858993460		; ccccccccH
	mov	DWORD PTR _this$[ebp], ecx
	mov	ecx, OFFSET __C928C9E6_windowclass@cpp
	call	@__CheckForDebuggerJustMyCode@4
; Line 170
	mov	esi, esp
	mov	eax, DWORD PTR _lParam$[ebp]
	push	eax
	mov	ecx, DWORD PTR _wParam$[ebp]
	push	ecx
	mov	edx, DWORD PTR _message$[ebp]
	push	edx
	mov	eax, DWORD PTR _this$[ebp]
	mov	ecx, DWORD PTR [eax+4]
	push	ecx
	call	DWORD PTR __imp__DefWindowProcA@16
	cmp	esi, esp
	call	__RTC_CheckEsp
; Line 171
	pop	esi
	add	esp, 4
	cmp	ebp, esp
	call	__RTC_CheckEsp
	mov	esp, ebp
	pop	ebp
	ret	16					; 00000010H
?WndProc@Window@@MAEJPAUHWND__@@IIJ@Z ENDP		; Window::WndProc
_TEXT	ENDS
; Function compile flags: /Odtp /RTCsu
_TEXT	SEGMENT
tv64 = -12						; size = 4
_ppp$1 = -8						; size = 4
_w$2 = -4						; size = 4
_hWnd$ = 8						; size = 4
_message$ = 12						; size = 4
_wParam$ = 16						; size = 4
_lParam$ = 20						; size = 4
?InitWndProc@Window@@KGJPAUHWND__@@IIJ@Z PROC		; Window::InitWndProc
; File e:\test\direct2d_test\windowclass.cpp
; Line 142
	push	ebp
	mov	ebp, esp
	sub	esp, 12					; 0000000cH
	push	esi
	mov	DWORD PTR [ebp-12], -858993460		; ccccccccH
	mov	DWORD PTR [ebp-8], -858993460		; ccccccccH
	mov	DWORD PTR [ebp-4], -858993460		; ccccccccH
	mov	ecx, OFFSET __C928C9E6_windowclass@cpp
	call	@__CheckForDebuggerJustMyCode@4
; Line 143
	mov	eax, DWORD PTR _message$[ebp]
	mov	DWORD PTR tv64[ebp], eax
	cmp	DWORD PTR tv64[ebp], 1
	je	SHORT $LN4@InitWndPro
	jmp	SHORT $LN2@InitWndPro
$LN4@InitWndPro:
; Line 145
	mov	DWORD PTR _w$2[ebp], 0
; Line 146
	mov	ecx, DWORD PTR _lParam$[ebp]
	mov	edx, DWORD PTR [ecx]
	mov	DWORD PTR _w$2[ebp], edx
; Line 147
	cmp	DWORD PTR _w$2[ebp], 0
	je	SHORT $LN2@InitWndPro
; Line 148
	mov	eax, DWORD PTR _w$2[ebp]
	mov	ecx, DWORD PTR _hWnd$[ebp]
	mov	DWORD PTR [eax+4], ecx
; Line 149
	mov	DWORD PTR _ppp$1[ebp], 0
; Line 150
	mov	DWORD PTR _ppp$1[ebp], OFFSET ?StaticWndProc@Window@@KGJPAUHWND__@@IIJ@Z ; Window::StaticWndProc
; Line 156
	mov	ecx, DWORD PTR _w$2[ebp]
	add	ecx, 36					; 00000024H
	call	?GetWndProcThunk@WndProcThunk@@QAEP6GJPAUHWND__@@IIJ@ZXZ ; WndProcThunk::GetWndProcThunk
	mov	esi, esp
	push	eax
	push	-4					; fffffffcH
	mov	edx, DWORD PTR _hWnd$[ebp]
	push	edx
	call	DWORD PTR __imp__SetWindowLongA@12
	cmp	esi, esp
	call	__RTC_CheckEsp
; Line 160
	mov	esi, esp
	mov	eax, DWORD PTR _lParam$[ebp]
	push	eax
	mov	ecx, DWORD PTR _wParam$[ebp]
	push	ecx
	mov	edx, DWORD PTR _message$[ebp]
	push	edx
	mov	eax, DWORD PTR _hWnd$[ebp]
	push	eax
	mov	ecx, DWORD PTR _w$2[ebp]
	add	ecx, 36					; 00000024H
	call	?GetWndProcThunk@WndProcThunk@@QAEP6GJPAUHWND__@@IIJ@ZXZ ; WndProcThunk::GetWndProcThunk
	call	eax
	cmp	esi, esp
	call	__RTC_CheckEsp
	jmp	SHORT $LN1@InitWndPro
$LN2@InitWndPro:
; Line 165
	mov	esi, esp
	mov	ecx, DWORD PTR _lParam$[ebp]
	push	ecx
	mov	edx, DWORD PTR _wParam$[ebp]
	push	edx
	mov	eax, DWORD PTR _message$[ebp]
	push	eax
	mov	ecx, DWORD PTR _hWnd$[ebp]
	push	ecx
	call	DWORD PTR __imp__DefWindowProcA@16
	cmp	esi, esp
	call	__RTC_CheckEsp
$LN1@InitWndPro:
; Line 166
	pop	esi
	add	esp, 12					; 0000000cH
	cmp	ebp, esp
	call	__RTC_CheckEsp
	mov	esp, ebp
	pop	ebp
	ret	16					; 00000010H
?InitWndProc@Window@@KGJPAUHWND__@@IIJ@Z ENDP		; Window::InitWndProc
_TEXT	ENDS
; Function compile flags: /Odtp /RTCsu
_TEXT	SEGMENT
tv78 = -176						; size = 4
_t$ = -168						; size = 128
_tRect$ = -32						; size = 16
_returnVal$ = -12					; size = 4
_pThis$ = -8						; size = 4
__$ArrayPad$ = -4					; size = 4
_hWnd$ = 8						; size = 4
_message$ = 12						; size = 4
_wParam$ = 16						; size = 4
_lParam$ = 20						; size = 4
?StaticWndProc@Window@@KGJPAUHWND__@@IIJ@Z PROC		; Window::StaticWndProc
; File e:\test\direct2d_test\windowclass.cpp
; Line 100
	push	ebp
	mov	ebp, esp
	sub	esp, 176				; 000000b0H
	push	esi
	push	edi
	lea	edi, DWORD PTR [ebp-176]
	mov	ecx, 44					; 0000002cH
	mov	eax, -858993460				; ccccccccH
	rep stosd
	mov	eax, DWORD PTR ___security_cookie
	xor	eax, ebp
	mov	DWORD PTR __$ArrayPad$[ebp], eax
	mov	ecx, OFFSET __C928C9E6_windowclass@cpp
	call	@__CheckForDebuggerJustMyCode@4
; Line 102
	mov	eax, DWORD PTR _hWnd$[ebp]
	mov	DWORD PTR _pThis$[ebp], eax
; Line 103
	mov	ecx, DWORD PTR _pThis$[ebp]
	mov	edx, DWORD PTR [ecx+4]
	mov	DWORD PTR _hWnd$[ebp], edx
; Line 104
	mov	esi, esp
	mov	eax, DWORD PTR _lParam$[ebp]
	push	eax
	mov	ecx, DWORD PTR _wParam$[ebp]
	push	ecx
	mov	edx, DWORD PTR _message$[ebp]
	push	edx
	mov	eax, DWORD PTR _hWnd$[ebp]
	push	eax
	mov	ecx, DWORD PTR _pThis$[ebp]
	mov	edx, DWORD PTR [ecx]
	mov	ecx, DWORD PTR _pThis$[ebp]
	mov	eax, DWORD PTR [edx]
	call	eax
	cmp	esi, esp
	call	__RTC_CheckEsp
	mov	DWORD PTR _returnVal$[ebp], eax
; Line 105
	mov	DWORD PTR _tRect$[ebp], 0
	mov	DWORD PTR _tRect$[ebp+4], 0
	mov	DWORD PTR _tRect$[ebp+8], 0
	mov	DWORD PTR _tRect$[ebp+12], 0
; Line 106
	mov	cl, BYTE PTR $SG93250
	mov	BYTE PTR _t$[ebp], cl
	push	127					; 0000007fH
	push	0
	lea	edx, DWORD PTR _t$[ebp+1]
	push	edx
	call	_memset
	add	esp, 12					; 0000000cH
; Line 107
	mov	eax, DWORD PTR _message$[ebp]
	mov	DWORD PTR tv78[ebp], eax
	cmp	DWORD PTR tv78[ebp], 532		; 00000214H
	ja	SHORT $LN11@StaticWndP
	cmp	DWORD PTR tv78[ebp], 532		; 00000214H
	je	$LN6@StaticWndP
	cmp	DWORD PTR tv78[ebp], 2
	je	SHORT $LN4@StaticWndP
	cmp	DWORD PTR tv78[ebp], 5
	je	SHORT $LN5@StaticWndP
	jmp	$LN2@StaticWndP
$LN11@StaticWndP:
	cmp	DWORD PTR tv78[ebp], 534		; 00000216H
	je	$LN7@StaticWndP
	jmp	$LN2@StaticWndP
$LN4@StaticWndP:
; Line 109
	mov	esi, esp
	push	0
	call	DWORD PTR __imp__PostQuitMessage@4
	cmp	esi, esp
	call	__RTC_CheckEsp
; Line 110
	jmp	$LN2@StaticWndP
$LN5@StaticWndP:
; Line 112
	mov	ecx, DWORD PTR _lParam$[ebp]
	and	ecx, 65535				; 0000ffffH
	movzx	edx, cx
	mov	eax, DWORD PTR _pThis$[ebp]
	mov	DWORD PTR [eax+16], edx
; Line 113
	mov	ecx, DWORD PTR _lParam$[ebp]
	shr	ecx, 16					; 00000010H
	and	ecx, 65535				; 0000ffffH
	movzx	edx, cx
	mov	eax, DWORD PTR _pThis$[ebp]
	mov	DWORD PTR [eax+20], edx
; Line 114
	mov	esi, esp
	lea	ecx, DWORD PTR _tRect$[ebp]
	push	ecx
	mov	edx, DWORD PTR _hWnd$[ebp]
	push	edx
	call	DWORD PTR __imp__GetWindowRect@8
	cmp	esi, esp
	call	__RTC_CheckEsp
; Line 115
	mov	eax, DWORD PTR _tRect$[ebp+8]
	sub	eax, DWORD PTR _tRect$[ebp]
	mov	ecx, DWORD PTR _pThis$[ebp]
	mov	DWORD PTR [ecx+8], eax
; Line 116
	mov	edx, DWORD PTR _tRect$[ebp+12]
	sub	edx, DWORD PTR _tRect$[ebp+4]
	mov	eax, DWORD PTR _pThis$[ebp]
	mov	DWORD PTR [eax+12], edx
; Line 117
	mov	ecx, DWORD PTR _pThis$[ebp]
	mov	edx, DWORD PTR _tRect$[ebp]
	mov	DWORD PTR [ecx+24], edx
; Line 118
	mov	eax, DWORD PTR _pThis$[ebp]
	mov	ecx, DWORD PTR _tRect$[ebp+4]
	mov	DWORD PTR [eax+28], ecx
; Line 119
	mov	edx, DWORD PTR _pThis$[ebp]
	mov	eax, DWORD PTR [edx+20]
	push	eax
	mov	ecx, DWORD PTR _pThis$[ebp]
	mov	edx, DWORD PTR [ecx+16]
	push	edx
	mov	eax, DWORD PTR _pThis$[ebp]
	mov	ecx, DWORD PTR [eax+12]
	push	ecx
	mov	edx, DWORD PTR _pThis$[ebp]
	mov	eax, DWORD PTR [edx+8]
	push	eax
	mov	ecx, DWORD PTR _pThis$[ebp]
	mov	edx, DWORD PTR [ecx+28]
	push	edx
	mov	eax, DWORD PTR _pThis$[ebp]
	mov	ecx, DWORD PTR [eax+24]
	push	ecx
	push	OFFSET $SG93253
	lea	edx, DWORD PTR _t$[ebp]
	push	edx
	call	??$sprintf_s@$0IA@@@YAHAAY0IA@DPBDZZ	; sprintf_s<128>
	add	esp, 32					; 00000020H
; Line 120
	mov	esi, esp
	lea	eax, DWORD PTR _t$[ebp]
	push	eax
	mov	ecx, DWORD PTR _hWnd$[ebp]
	push	ecx
	call	DWORD PTR __imp__SetWindowTextA@8
	cmp	esi, esp
	call	__RTC_CheckEsp
; Line 121
	jmp	$LN2@StaticWndP
$LN6@StaticWndP:
; Line 123
	mov	edx, DWORD PTR _lParam$[ebp]
	mov	eax, DWORD PTR _lParam$[ebp]
	mov	ecx, DWORD PTR [edx+8]
	sub	ecx, DWORD PTR [eax]
	mov	edx, DWORD PTR _pThis$[ebp]
	mov	DWORD PTR [edx+8], ecx
; Line 124
	mov	eax, DWORD PTR _lParam$[ebp]
	mov	ecx, DWORD PTR _lParam$[ebp]
	mov	edx, DWORD PTR [eax+12]
	sub	edx, DWORD PTR [ecx+4]
	mov	eax, DWORD PTR _pThis$[ebp]
	mov	DWORD PTR [eax+12], edx
; Line 125
	mov	ecx, DWORD PTR _pThis$[ebp]
	mov	edx, DWORD PTR [ecx+20]
	push	edx
	mov	eax, DWORD PTR _pThis$[ebp]
	mov	ecx, DWORD PTR [eax+16]
	push	ecx
	mov	edx, DWORD PTR _pThis$[ebp]
	mov	eax, DWORD PTR [edx+12]
	push	eax
	mov	ecx, DWORD PTR _pThis$[ebp]
	mov	edx, DWORD PTR [ecx+8]
	push	edx
	mov	eax, DWORD PTR _pThis$[ebp]
	mov	ecx, DWORD PTR [eax+28]
	push	ecx
	mov	edx, DWORD PTR _pThis$[ebp]
	mov	eax, DWORD PTR [edx+24]
	push	eax
	push	OFFSET $SG93255
	lea	ecx, DWORD PTR _t$[ebp]
	push	ecx
	call	??$sprintf_s@$0IA@@@YAHAAY0IA@DPBDZZ	; sprintf_s<128>
	add	esp, 32					; 00000020H
; Line 126
	mov	esi, esp
	lea	edx, DWORD PTR _t$[ebp]
	push	edx
	mov	eax, DWORD PTR _hWnd$[ebp]
	push	eax
	call	DWORD PTR __imp__SetWindowTextA@8
	cmp	esi, esp
	call	__RTC_CheckEsp
; Line 127
	jmp	SHORT $LN2@StaticWndP
$LN7@StaticWndP:
; Line 129
	mov	ecx, DWORD PTR _pThis$[ebp]
	mov	edx, DWORD PTR _lParam$[ebp]
	mov	eax, DWORD PTR [edx]
	mov	DWORD PTR [ecx+24], eax
; Line 130
	mov	ecx, DWORD PTR _pThis$[ebp]
	mov	edx, DWORD PTR _lParam$[ebp]
	mov	eax, DWORD PTR [edx+4]
	mov	DWORD PTR [ecx+28], eax
; Line 131
	mov	ecx, DWORD PTR _pThis$[ebp]
	mov	edx, DWORD PTR [ecx+20]
	push	edx
	mov	eax, DWORD PTR _pThis$[ebp]
	mov	ecx, DWORD PTR [eax+16]
	push	ecx
	mov	edx, DWORD PTR _pThis$[ebp]
	mov	eax, DWORD PTR [edx+12]
	push	eax
	mov	ecx, DWORD PTR _pThis$[ebp]
	mov	edx, DWORD PTR [ecx+8]
	push	edx
	mov	eax, DWORD PTR _pThis$[ebp]
	mov	ecx, DWORD PTR [eax+28]
	push	ecx
	mov	edx, DWORD PTR _pThis$[ebp]
	mov	eax, DWORD PTR [edx+24]
	push	eax
	push	OFFSET $SG93257
	lea	ecx, DWORD PTR _t$[ebp]
	push	ecx
	call	??$sprintf_s@$0IA@@@YAHAAY0IA@DPBDZZ	; sprintf_s<128>
	add	esp, 32					; 00000020H
; Line 132
	mov	esi, esp
	lea	edx, DWORD PTR _t$[ebp]
	push	edx
	mov	eax, DWORD PTR _hWnd$[ebp]
	push	eax
	call	DWORD PTR __imp__SetWindowTextA@8
	cmp	esi, esp
	call	__RTC_CheckEsp
$LN2@StaticWndP:
; Line 135
	cmp	DWORD PTR _returnVal$[ebp], 0
	jne	SHORT $LN8@StaticWndP
; Line 136
	mov	esi, esp
	mov	ecx, DWORD PTR _lParam$[ebp]
	push	ecx
	mov	edx, DWORD PTR _wParam$[ebp]
	push	edx
	mov	eax, DWORD PTR _message$[ebp]
	push	eax
	mov	ecx, DWORD PTR _hWnd$[ebp]
	push	ecx
	call	DWORD PTR __imp__DefWindowProcA@16
	cmp	esi, esp
	call	__RTC_CheckEsp
	jmp	SHORT $LN1@StaticWndP
; Line 137
	jmp	SHORT $LN1@StaticWndP
$LN8@StaticWndP:
; Line 138
	mov	eax, DWORD PTR _returnVal$[ebp]
$LN1@StaticWndP:
; Line 140
	push	edx
	mov	ecx, ebp
	push	eax
	lea	edx, DWORD PTR $LN15@StaticWndP
	call	@_RTC_CheckStackVars@8
	pop	eax
	pop	edx
	pop	edi
	pop	esi
	mov	ecx, DWORD PTR __$ArrayPad$[ebp]
	xor	ecx, ebp
	call	@__security_check_cookie@4
	add	esp, 176				; 000000b0H
	cmp	ebp, esp
	call	__RTC_CheckEsp
	mov	esp, ebp
	pop	ebp
	ret	16					; 00000010H
	npad	1
$LN15@StaticWndP:
	DD	2
	DD	$LN14@StaticWndP
$LN14@StaticWndP:
	DD	-32					; ffffffe0H
	DD	16					; 00000010H
	DD	$LN12@StaticWndP
	DD	-168					; ffffff58H
	DD	128					; 00000080H
	DD	$LN13@StaticWndP
$LN13@StaticWndP:
	DB	116					; 00000074H
	DB	0
$LN12@StaticWndP:
	DB	116					; 00000074H
	DB	82					; 00000052H
	DB	101					; 00000065H
	DB	99					; 00000063H
	DB	116					; 00000074H
	DB	0
?StaticWndProc@Window@@KGJPAUHWND__@@IIJ@Z ENDP		; Window::StaticWndProc
_TEXT	ENDS
; Function compile flags: /Odtp /RTCsu
;	COMDAT ?GetClientHeight@Window@@QAEIXZ
_TEXT	SEGMENT
_this$ = -4						; size = 4
?GetClientHeight@Window@@QAEIXZ PROC			; Window::GetClientHeight, COMDAT
; _this$ = ecx
; File e:\test\direct2d_test\windowclass.hpp
; Line 50
	push	ebp
	mov	ebp, esp
	push	ecx
	mov	DWORD PTR [ebp-4], -858993460		; ccccccccH
	mov	DWORD PTR _this$[ebp], ecx
	mov	ecx, OFFSET __C57D2607_windowclass@hpp
	call	@__CheckForDebuggerJustMyCode@4
	mov	eax, DWORD PTR _this$[ebp]
	mov	eax, DWORD PTR [eax+16]
	add	esp, 4
	cmp	ebp, esp
	call	__RTC_CheckEsp
	mov	esp, ebp
	pop	ebp
	ret	0
?GetClientHeight@Window@@QAEIXZ ENDP			; Window::GetClientHeight
_TEXT	ENDS
; Function compile flags: /Odtp /RTCsu
;	COMDAT ?GetClientWidth@Window@@QAEIXZ
_TEXT	SEGMENT
_this$ = -4						; size = 4
?GetClientWidth@Window@@QAEIXZ PROC			; Window::GetClientWidth, COMDAT
; _this$ = ecx
; File e:\test\direct2d_test\windowclass.hpp
; Line 49
	push	ebp
	mov	ebp, esp
	push	ecx
	mov	DWORD PTR [ebp-4], -858993460		; ccccccccH
	mov	DWORD PTR _this$[ebp], ecx
	mov	ecx, OFFSET __C57D2607_windowclass@hpp
	call	@__CheckForDebuggerJustMyCode@4
	mov	eax, DWORD PTR _this$[ebp]
	mov	eax, DWORD PTR [eax+16]
	add	esp, 4
	cmp	ebp, esp
	call	__RTC_CheckEsp
	mov	esp, ebp
	pop	ebp
	ret	0
?GetClientWidth@Window@@QAEIXZ ENDP			; Window::GetClientWidth
_TEXT	ENDS
; Function compile flags: /Odtp /RTCsu
_TEXT	SEGMENT
_this$ = -4						; size = 4
_nCmdShow$ = 8						; size = 4
?Show@Window@@QAEXH@Z PROC				; Window::Show
; _this$ = ecx
; File e:\test\direct2d_test\windowclass.cpp
; Line 187
	push	ebp
	mov	ebp, esp
	push	ecx
	push	esi
	mov	DWORD PTR [ebp-4], -858993460		; ccccccccH
	mov	DWORD PTR _this$[ebp], ecx
	mov	ecx, OFFSET __C928C9E6_windowclass@cpp
	call	@__CheckForDebuggerJustMyCode@4
; Line 188
	mov	esi, esp
	mov	eax, DWORD PTR _nCmdShow$[ebp]
	push	eax
	mov	ecx, DWORD PTR _this$[ebp]
	mov	edx, DWORD PTR [ecx+4]
	push	edx
	call	DWORD PTR __imp__ShowWindow@8
	cmp	esi, esp
	call	__RTC_CheckEsp
; Line 189
	pop	esi
	add	esp, 4
	cmp	ebp, esp
	call	__RTC_CheckEsp
	mov	esp, ebp
	pop	ebp
	ret	4
?Show@Window@@QAEXH@Z ENDP				; Window::Show
_TEXT	ENDS
; Function compile flags: /Odtp /RTCsu
_TEXT	SEGMENT
_this$ = -4						; size = 4
?Create@Window@@QAE_NXZ PROC				; Window::Create
; _this$ = ecx
; File e:\test\direct2d_test\windowclass.cpp
; Line 96
	push	ebp
	mov	ebp, esp
	push	ecx
	mov	DWORD PTR [ebp-4], -858993460		; ccccccccH
	mov	DWORD PTR _this$[ebp], ecx
	mov	ecx, OFFSET __C928C9E6_windowclass@cpp
	call	@__CheckForDebuggerJustMyCode@4
; Line 97
	push	0
	push	0
	push	0
	push	0
	push	-2147483648				; 80000000H
	push	-2147483648				; 80000000H
	push	-2147483648				; 80000000H
	push	-2147483648				; 80000000H
	push	13565952				; 00cf0000H
	push	OFFSET $SG93221
	push	0
	mov	ecx, DWORD PTR _this$[ebp]
	call	?Create@Window@@QAE_NKPBDKHHHHPAUHWND__@@PAUHMENU__@@HPAUtagWNDCLASSEXA@@@Z ; Window::Create
; Line 98
	add	esp, 4
	cmp	ebp, esp
	call	__RTC_CheckEsp
	mov	esp, ebp
	pop	ebp
	ret	0
?Create@Window@@QAE_NXZ ENDP				; Window::Create
_TEXT	ENDS
; Function compile flags: /Odtp /RTCsu
_TEXT	SEGMENT
_this$ = -4						; size = 4
_width$ = 8						; size = 4
_height$ = 12						; size = 4
_x$ = 16						; size = 4
_y$ = 20						; size = 4
?Create@Window@@QAE_NHHHH@Z PROC			; Window::Create
; _this$ = ecx
; File e:\test\direct2d_test\windowclass.cpp
; Line 92
	push	ebp
	mov	ebp, esp
	push	ecx
	mov	DWORD PTR [ebp-4], -858993460		; ccccccccH
	mov	DWORD PTR _this$[ebp], ecx
	mov	ecx, OFFSET __C928C9E6_windowclass@cpp
	call	@__CheckForDebuggerJustMyCode@4
; Line 93
	push	0
	push	0
	push	0
	push	0
	mov	eax, DWORD PTR _height$[ebp]
	push	eax
	mov	ecx, DWORD PTR _width$[ebp]
	push	ecx
	mov	edx, DWORD PTR _y$[ebp]
	push	edx
	mov	eax, DWORD PTR _x$[ebp]
	push	eax
	push	13565952				; 00cf0000H
	push	OFFSET $SG93213
	push	0
	mov	ecx, DWORD PTR _this$[ebp]
	call	?Create@Window@@QAE_NKPBDKHHHHPAUHWND__@@PAUHMENU__@@HPAUtagWNDCLASSEXA@@@Z ; Window::Create
; Line 94
	add	esp, 4
	cmp	ebp, esp
	call	__RTC_CheckEsp
	mov	esp, ebp
	pop	ebp
	ret	16					; 00000010H
?Create@Window@@QAE_NHHHH@Z ENDP			; Window::Create
_TEXT	ENDS
; Function compile flags: /Odtp /RTCsu
_TEXT	SEGMENT
$T1 = -140						; size = 16
_tmpRect$ = -120					; size = 16
_tHwnd$ = -100						; size = 4
_className$2 = -92					; size = 21
_wcex$ = -60						; size = 48
_this$ = -8						; size = 4
__$ArrayPad$ = -4					; size = 4
_exStyle$ = 8						; size = 4
_titleText$ = 12					; size = 4
_style$ = 16						; size = 4
_x$ = 20						; size = 4
_y$ = 24						; size = 4
_width$ = 28						; size = 4
_height$ = 32						; size = 4
_wndParent$ = 36					; size = 4
_menu$ = 40						; size = 4
_cmdShow$ = 44						; size = 4
_partWndClass$ = 48					; size = 4
?Create@Window@@QAE_NKPBDKHHHHPAUHWND__@@PAUHMENU__@@HPAUtagWNDCLASSEXA@@@Z PROC ; Window::Create
; _this$ = ecx
; File e:\test\direct2d_test\windowclass.cpp
; Line 31
	push	ebp
	mov	ebp, esp
	sub	esp, 140				; 0000008cH
	push	esi
	push	edi
	push	ecx
	lea	edi, DWORD PTR [ebp-140]
	mov	ecx, 35					; 00000023H
	mov	eax, -858993460				; ccccccccH
	rep stosd
	pop	ecx
	mov	eax, DWORD PTR ___security_cookie
	xor	eax, ebp
	mov	DWORD PTR __$ArrayPad$[ebp], eax
	mov	DWORD PTR _this$[ebp], ecx
	mov	ecx, OFFSET __C928C9E6_windowclass@cpp
	call	@__CheckForDebuggerJustMyCode@4
; Line 32
	mov	eax, DWORD PTR _this$[ebp]
	cmp	DWORD PTR [eax+4], 0
	je	SHORT $LN2@Create
	xor	al, al
	jmp	$LN1@Create
$LN2@Create:
; Line 36
	cmp	DWORD PTR _partWndClass$[ebp], 0
	je	SHORT $LN3@Create
	mov	ecx, 12					; 0000000cH
	mov	esi, DWORD PTR _partWndClass$[ebp]
	lea	edi, DWORD PTR _wcex$[ebp]
	rep movsd
; Line 37
	jmp	$LN4@Create
$LN3@Create:
; Line 38
	mov	esi, esp
	push	0
	call	DWORD PTR __imp__CreateSolidBrush@4
	cmp	esi, esp
	call	__RTC_CheckEsp
	mov	DWORD PTR _wcex$[ebp+32], eax
; Line 39
	mov	esi, esp
	push	32512					; 00007f00H
	push	0
	call	DWORD PTR __imp__LoadCursorA@8
	cmp	esi, esp
	call	__RTC_CheckEsp
	mov	DWORD PTR _wcex$[ebp+28], eax
; Line 40
	mov	DWORD PTR _wcex$[ebp+24], 0
; Line 41
	mov	DWORD PTR _wcex$[ebp+44], 0
; Line 42
	mov	DWORD PTR _wcex$[ebp+36], 0
; Line 43
	mov	DWORD PTR _wcex$[ebp+4], 3
; Line 44
	mov	DWORD PTR _wcex$[ebp+12], 0
; Line 45
	mov	DWORD PTR _wcex$[ebp+16], 0
; Line 46
	mov	cl, BYTE PTR $SG93203
	mov	BYTE PTR _className$2[ebp], cl
	xor	edx, edx
	mov	DWORD PTR _className$2[ebp+1], edx
	mov	DWORD PTR _className$2[ebp+5], edx
	mov	DWORD PTR _className$2[ebp+9], edx
	mov	DWORD PTR _className$2[ebp+13], edx
	mov	DWORD PTR _className$2[ebp+17], edx
; Line 47
	mov	esi, esp
	push	10					; 0000000aH
	push	21					; 00000015H
	lea	eax, DWORD PTR _className$2[ebp]
	push	eax
	push	-1
	push	-1
	call	DWORD PTR __imp___ui64toa_s
	add	esp, 20					; 00000014H
	cmp	esi, esp
	call	__RTC_CheckEsp
; Line 48
	lea	ecx, DWORD PTR _className$2[ebp]
	mov	DWORD PTR _wcex$[ebp+40], ecx
$LN4@Create:
; Line 51
	mov	DWORD PTR _wcex$[ebp], 48		; 00000030H
; Line 52
	mov	DWORD PTR _wcex$[ebp+8], OFFSET ?InitWndProc@Window@@KGJPAUHWND__@@IIJ@Z ; Window::InitWndProc
; Line 53
	mov	edx, DWORD PTR _this$[ebp]
	mov	eax, DWORD PTR [edx+32]
	mov	DWORD PTR _wcex$[ebp+20], eax
; Line 55
	mov	esi, esp
	lea	ecx, DWORD PTR _wcex$[ebp]
	push	ecx
	call	DWORD PTR __imp__RegisterClassExA@4
	cmp	esi, esp
	call	__RTC_CheckEsp
	movzx	edx, ax
	test	edx, edx
	jne	SHORT $LN5@Create
	xor	al, al
	jmp	$LN1@Create
$LN5@Create:
; Line 57
	mov	DWORD PTR _tHwnd$[ebp], 0
; Line 58
	mov	esi, esp
	mov	eax, DWORD PTR _this$[ebp]
	push	eax
	mov	ecx, DWORD PTR _this$[ebp]
	mov	edx, DWORD PTR [ecx+32]
	push	edx
	mov	eax, DWORD PTR _menu$[ebp]
	push	eax
	mov	ecx, DWORD PTR _wndParent$[ebp]
	push	ecx
	mov	edx, DWORD PTR _height$[ebp]
	push	edx
	mov	eax, DWORD PTR _width$[ebp]
	push	eax
	mov	ecx, DWORD PTR _y$[ebp]
	push	ecx
	mov	edx, DWORD PTR _x$[ebp]
	push	edx
	mov	eax, DWORD PTR _style$[ebp]
	push	eax
	mov	ecx, DWORD PTR _titleText$[ebp]
	push	ecx
	mov	edx, DWORD PTR _wcex$[ebp+40]
	push	edx
	mov	eax, DWORD PTR _exStyle$[ebp]
	push	eax
	call	DWORD PTR __imp__CreateWindowExA@48
	cmp	esi, esp
	call	__RTC_CheckEsp
	mov	DWORD PTR _tHwnd$[ebp], eax
; Line 71
	cmp	DWORD PTR _tHwnd$[ebp], 0
	jne	SHORT $LN6@Create
	xor	al, al
	jmp	$LN1@Create
$LN6@Create:
; Line 72
	mov	ecx, DWORD PTR _this$[ebp]
	mov	edx, DWORD PTR _tHwnd$[ebp]
	mov	DWORD PTR [ecx+4], edx
; Line 74
	mov	DWORD PTR _tmpRect$[ebp], 0
	mov	DWORD PTR _tmpRect$[ebp+4], 0
	mov	DWORD PTR _tmpRect$[ebp+8], 0
	mov	DWORD PTR _tmpRect$[ebp+12], 0
; Line 75
	mov	esi, esp
	lea	eax, DWORD PTR _tmpRect$[ebp]
	push	eax
	mov	ecx, DWORD PTR _tHwnd$[ebp]
	push	ecx
	call	DWORD PTR __imp__GetClientRect@8
	cmp	esi, esp
	call	__RTC_CheckEsp
; Line 76
	mov	edx, DWORD PTR _this$[ebp]
	mov	eax, DWORD PTR _tmpRect$[ebp+8]
	mov	DWORD PTR [edx+16], eax
; Line 77
	mov	ecx, DWORD PTR _this$[ebp]
	mov	edx, DWORD PTR _tmpRect$[ebp+12]
	mov	DWORD PTR [ecx+20], edx
; Line 79
	mov	DWORD PTR $T1[ebp], 0
	mov	DWORD PTR $T1[ebp+4], 0
	mov	DWORD PTR $T1[ebp+8], 0
	mov	DWORD PTR $T1[ebp+12], 0
	mov	eax, DWORD PTR $T1[ebp]
	mov	DWORD PTR _tmpRect$[ebp], eax
	mov	ecx, DWORD PTR $T1[ebp+4]
	mov	DWORD PTR _tmpRect$[ebp+4], ecx
	mov	edx, DWORD PTR $T1[ebp+8]
	mov	DWORD PTR _tmpRect$[ebp+8], edx
	mov	eax, DWORD PTR $T1[ebp+12]
	mov	DWORD PTR _tmpRect$[ebp+12], eax
; Line 80
	mov	esi, esp
	lea	ecx, DWORD PTR _tmpRect$[ebp]
	push	ecx
	mov	edx, DWORD PTR _tHwnd$[ebp]
	push	edx
	call	DWORD PTR __imp__GetWindowRect@8
	cmp	esi, esp
	call	__RTC_CheckEsp
; Line 81
	mov	eax, DWORD PTR _this$[ebp]
	mov	ecx, DWORD PTR _tmpRect$[ebp]
	mov	DWORD PTR [eax+24], ecx
; Line 82
	mov	edx, DWORD PTR _this$[ebp]
	mov	eax, DWORD PTR _tmpRect$[ebp+4]
	mov	DWORD PTR [edx+28], eax
; Line 83
	mov	ecx, DWORD PTR _tmpRect$[ebp+8]
	sub	ecx, DWORD PTR _tmpRect$[ebp]
	mov	edx, DWORD PTR _this$[ebp]
	mov	DWORD PTR [edx+8], ecx
; Line 84
	mov	eax, DWORD PTR _tmpRect$[ebp+12]
	sub	eax, DWORD PTR _tmpRect$[ebp+4]
	mov	ecx, DWORD PTR _this$[ebp]
	mov	DWORD PTR [ecx+12], eax
; Line 86
	mov	esi, esp
	mov	edx, DWORD PTR _cmdShow$[ebp]
	push	edx
	mov	eax, DWORD PTR _tHwnd$[ebp]
	push	eax
	call	DWORD PTR __imp__ShowWindow@8
	cmp	esi, esp
	call	__RTC_CheckEsp
; Line 88
	mov	al, 1
$LN1@Create:
; Line 89
	push	edx
	mov	ecx, ebp
	push	eax
	lea	edx, DWORD PTR $LN12@Create
	call	@_RTC_CheckStackVars@8
	pop	eax
	pop	edx
	pop	edi
	pop	esi
	mov	ecx, DWORD PTR __$ArrayPad$[ebp]
	xor	ecx, ebp
	call	@__security_check_cookie@4
	add	esp, 140				; 0000008cH
	cmp	ebp, esp
	call	__RTC_CheckEsp
	mov	esp, ebp
	pop	ebp
	ret	44					; 0000002cH
	npad	2
$LN12@Create:
	DD	3
	DD	$LN11@Create
$LN11@Create:
	DD	-60					; ffffffc4H
	DD	48					; 00000030H
	DD	$LN8@Create
	DD	-92					; ffffffa4H
	DD	21					; 00000015H
	DD	$LN9@Create
	DD	-120					; ffffff88H
	DD	16					; 00000010H
	DD	$LN10@Create
$LN10@Create:
	DB	116					; 00000074H
	DB	109					; 0000006dH
	DB	112					; 00000070H
	DB	82					; 00000052H
	DB	101					; 00000065H
	DB	99					; 00000063H
	DB	116					; 00000074H
	DB	0
$LN9@Create:
	DB	99					; 00000063H
	DB	108					; 0000006cH
	DB	97					; 00000061H
	DB	115					; 00000073H
	DB	115					; 00000073H
	DB	78					; 0000004eH
	DB	97					; 00000061H
	DB	109					; 0000006dH
	DB	101					; 00000065H
	DB	0
$LN8@Create:
	DB	119					; 00000077H
	DB	99					; 00000063H
	DB	101					; 00000065H
	DB	120					; 00000078H
	DB	0
?Create@Window@@QAE_NKPBDKHHHHPAUHWND__@@PAUHMENU__@@HPAUtagWNDCLASSEXA@@@Z ENDP ; Window::Create
_TEXT	ENDS
; Function compile flags: /Odtp /RTCsu
_TEXT	SEGMENT
tv83 = -33						; size = 1
_tRect$ = -28						; size = 16
_this$ = -8						; size = 4
__$ArrayPad$ = -4					; size = 4
_cWidth$ = 8						; size = 4
_cHeight$ = 12						; size = 4
?SetClientSize@Window@@QAE_NHH@Z PROC			; Window::SetClientSize
; _this$ = ecx
; File e:\test\direct2d_test\windowclass.cpp
; Line 173
	push	ebp
	mov	ebp, esp
	sub	esp, 36					; 00000024H
	push	esi
	mov	eax, -858993460				; ccccccccH
	mov	DWORD PTR [ebp-36], eax
	mov	DWORD PTR [ebp-32], eax
	mov	DWORD PTR [ebp-28], eax
	mov	DWORD PTR [ebp-24], eax
	mov	DWORD PTR [ebp-20], eax
	mov	DWORD PTR [ebp-16], eax
	mov	DWORD PTR [ebp-12], eax
	mov	DWORD PTR [ebp-8], eax
	mov	DWORD PTR [ebp-4], eax
	mov	eax, DWORD PTR ___security_cookie
	xor	eax, ebp
	mov	DWORD PTR __$ArrayPad$[ebp], eax
	mov	DWORD PTR _this$[ebp], ecx
	mov	ecx, OFFSET __C928C9E6_windowclass@cpp
	call	@__CheckForDebuggerJustMyCode@4
; Line 174
	mov	DWORD PTR _tRect$[ebp], 0
	mov	DWORD PTR _tRect$[ebp+4], 0
	mov	eax, DWORD PTR _this$[ebp]
	mov	ecx, DWORD PTR _this$[ebp]
	mov	edx, DWORD PTR [eax+8]
	sub	edx, DWORD PTR [ecx+16]
	mov	DWORD PTR _tRect$[ebp+8], edx
	mov	eax, DWORD PTR _this$[ebp]
	mov	ecx, DWORD PTR _this$[ebp]
	mov	edx, DWORD PTR [eax+12]
	sub	edx, DWORD PTR [ecx+20]
	mov	DWORD PTR _tRect$[ebp+12], edx
; Line 175
	mov	eax, DWORD PTR _this$[ebp]
	mov	ecx, DWORD PTR [eax+24]
	mov	DWORD PTR _tRect$[ebp], ecx
; Line 176
	mov	edx, DWORD PTR _this$[ebp]
	mov	eax, DWORD PTR [edx+28]
	mov	DWORD PTR _tRect$[ebp+4], eax
; Line 177
	mov	ecx, DWORD PTR _tRect$[ebp+8]
	add	ecx, DWORD PTR _cWidth$[ebp]
	mov	DWORD PTR _tRect$[ebp+8], ecx
; Line 178
	mov	edx, DWORD PTR _tRect$[ebp+12]
	add	edx, DWORD PTR _cHeight$[ebp]
	mov	DWORD PTR _tRect$[ebp+12], edx
; Line 179
	mov	esi, esp
	push	1
	mov	eax, DWORD PTR _tRect$[ebp+12]
	push	eax
	mov	ecx, DWORD PTR _tRect$[ebp+8]
	push	ecx
	mov	edx, DWORD PTR _tRect$[ebp+4]
	push	edx
	mov	eax, DWORD PTR _tRect$[ebp]
	push	eax
	mov	ecx, DWORD PTR _this$[ebp]
	mov	edx, DWORD PTR [ecx+4]
	push	edx
	call	DWORD PTR __imp__MoveWindow@24
	cmp	esi, esp
	call	__RTC_CheckEsp
	test	eax, eax
	je	SHORT $LN3@SetClientS
	mov	BYTE PTR tv83[ebp], 1
	jmp	SHORT $LN4@SetClientS
$LN3@SetClientS:
	mov	BYTE PTR tv83[ebp], 0
$LN4@SetClientS:
	mov	al, BYTE PTR tv83[ebp]
; Line 181
	push	edx
	mov	ecx, ebp
	push	eax
	lea	edx, DWORD PTR $LN7@SetClientS
	call	@_RTC_CheckStackVars@8
	pop	eax
	pop	edx
	pop	esi
	mov	ecx, DWORD PTR __$ArrayPad$[ebp]
	xor	ecx, ebp
	call	@__security_check_cookie@4
	add	esp, 36					; 00000024H
	cmp	ebp, esp
	call	__RTC_CheckEsp
	mov	esp, ebp
	pop	ebp
	ret	8
	npad	1
$LN7@SetClientS:
	DD	1
	DD	$LN6@SetClientS
$LN6@SetClientS:
	DD	-28					; ffffffe4H
	DD	16					; 00000010H
	DD	$LN5@SetClientS
$LN5@SetClientS:
	DB	116					; 00000074H
	DB	82					; 00000052H
	DB	101					; 00000065H
	DB	99					; 00000063H
	DB	116					; 00000074H
	DB	0
?SetClientSize@Window@@QAE_NHH@Z ENDP			; Window::SetClientSize
_TEXT	ENDS
; Function compile flags: /Odtp /RTCsu
_TEXT	SEGMENT
_tSize$ = -16						; size = 8
_this$ = -4						; size = 4
___$ReturnUdt$ = 8					; size = 4
?GetClientSize@Window@@QAE?AUtagSIZE@@XZ PROC		; Window::GetClientSize
; _this$ = ecx
; File e:\test\direct2d_test\windowclass.cpp
; Line 182
	push	ebp
	mov	ebp, esp
	sub	esp, 20					; 00000014H
	mov	eax, -858993460				; ccccccccH
	mov	DWORD PTR [ebp-20], eax
	mov	DWORD PTR [ebp-16], eax
	mov	DWORD PTR [ebp-12], eax
	mov	DWORD PTR [ebp-8], eax
	mov	DWORD PTR [ebp-4], eax
	mov	DWORD PTR _this$[ebp], ecx
	mov	ecx, OFFSET __C928C9E6_windowclass@cpp
	call	@__CheckForDebuggerJustMyCode@4
; Line 183
	mov	eax, DWORD PTR _this$[ebp]
	mov	ecx, DWORD PTR [eax+16]
	mov	DWORD PTR _tSize$[ebp], ecx
	mov	edx, DWORD PTR _this$[ebp]
	mov	eax, DWORD PTR [edx+20]
	mov	DWORD PTR _tSize$[ebp+4], eax
; Line 184
	mov	ecx, DWORD PTR ___$ReturnUdt$[ebp]
	mov	edx, DWORD PTR _tSize$[ebp]
	mov	DWORD PTR [ecx], edx
	mov	eax, DWORD PTR _tSize$[ebp+4]
	mov	DWORD PTR [ecx+4], eax
	mov	eax, DWORD PTR ___$ReturnUdt$[ebp]
; Line 185
	push	edx
	mov	ecx, ebp
	push	eax
	lea	edx, DWORD PTR $LN5@GetClientS
	call	@_RTC_CheckStackVars@8
	pop	eax
	pop	edx
	add	esp, 20					; 00000014H
	cmp	ebp, esp
	call	__RTC_CheckEsp
	mov	esp, ebp
	pop	ebp
	ret	4
	npad	1
$LN5@GetClientS:
	DD	1
	DD	$LN4@GetClientS
$LN4@GetClientS:
	DD	-16					; fffffff0H
	DD	8
	DD	$LN3@GetClientS
$LN3@GetClientS:
	DB	116					; 00000074H
	DB	83					; 00000053H
	DB	105					; 00000069H
	DB	122					; 0000007aH
	DB	101					; 00000065H
	DB	0
?GetClientSize@Window@@QAE?AUtagSIZE@@XZ ENDP		; Window::GetClientSize
_TEXT	ENDS
; Function compile flags: /Odtp /RTCsu
;	COMDAT ?GetHwnd@Window@@QAEPAUHWND__@@XZ
_TEXT	SEGMENT
_this$ = -4						; size = 4
?GetHwnd@Window@@QAEPAUHWND__@@XZ PROC			; Window::GetHwnd, COMDAT
; _this$ = ecx
; File e:\test\direct2d_test\windowclass.hpp
; Line 22
	push	ebp
	mov	ebp, esp
	push	ecx
	mov	DWORD PTR [ebp-4], -858993460		; ccccccccH
	mov	DWORD PTR _this$[ebp], ecx
	mov	ecx, OFFSET __C57D2607_windowclass@hpp
	call	@__CheckForDebuggerJustMyCode@4
	mov	eax, DWORD PTR _this$[ebp]
	mov	eax, DWORD PTR [eax+4]
	add	esp, 4
	cmp	ebp, esp
	call	__RTC_CheckEsp
	mov	esp, ebp
	pop	ebp
	ret	0
?GetHwnd@Window@@QAEPAUHWND__@@XZ ENDP			; Window::GetHwnd
_TEXT	ENDS
; Function compile flags: /Odtp /RTCsu
_TEXT	SEGMENT
_this$ = -16						; size = 4
__$EHRec$ = -12						; size = 12
??1Window@@QAE@XZ PROC					; Window::~Window
; _this$ = ecx
; File e:\test\direct2d_test\windowclass.cpp
; Line 5
	push	ebp
	mov	ebp, esp
	push	-1
	push	__ehhandler$??1Window@@QAE@XZ
	mov	eax, DWORD PTR fs:0
	push	eax
	push	ecx
	push	esi
	mov	DWORD PTR [ebp-16], -858993460		; ccccccccH
	mov	eax, DWORD PTR ___security_cookie
	xor	eax, ebp
	push	eax
	lea	eax, DWORD PTR __$EHRec$[ebp]
	mov	DWORD PTR fs:0, eax
	mov	DWORD PTR _this$[ebp], ecx
	mov	ecx, OFFSET __C928C9E6_windowclass@cpp
	call	@__CheckForDebuggerJustMyCode@4
	mov	eax, DWORD PTR _this$[ebp]
	mov	DWORD PTR [eax], OFFSET ??_7Window@@6B@
; Line 6
	mov	ecx, DWORD PTR _this$[ebp]
	cmp	DWORD PTR [ecx+4], 0
	je	SHORT $LN1@Window
	mov	esi, esp
	mov	edx, DWORD PTR _this$[ebp]
	mov	eax, DWORD PTR [edx+4]
	push	eax
	call	DWORD PTR __imp__IsWindow@4
	cmp	esi, esp
	call	__RTC_CheckEsp
	test	eax, eax
	je	SHORT $LN1@Window
; Line 7
	mov	esi, esp
	mov	ecx, DWORD PTR _this$[ebp]
	mov	edx, DWORD PTR [ecx+4]
	push	edx
	call	DWORD PTR __imp__DestroyWindow@4
	cmp	esi, esp
	call	__RTC_CheckEsp
$LN1@Window:
; Line 9
	mov	ecx, DWORD PTR _this$[ebp]
	add	ecx, 36					; 00000024H
	call	??1WndProcThunk@@QAE@XZ			; WndProcThunk::~WndProcThunk
	mov	ecx, DWORD PTR __$EHRec$[ebp]
	mov	DWORD PTR fs:0, ecx
	pop	ecx
	pop	esi
	add	esp, 16					; 00000010H
	cmp	ebp, esp
	call	__RTC_CheckEsp
	mov	esp, ebp
	pop	ebp
	ret	0
_TEXT	ENDS
text$x	SEGMENT
__ehhandler$??1Window@@QAE@XZ:
	mov	edx, DWORD PTR [esp+8]
	lea	eax, DWORD PTR [edx+12]
	mov	ecx, DWORD PTR [edx-12]
	xor	ecx, eax
	call	@__security_check_cookie@4
	mov	eax, OFFSET __ehfuncinfo$??1Window@@QAE@XZ
	jmp	___CxxFrameHandler3
text$x	ENDS
??1Window@@QAE@XZ ENDP					; Window::~Window
; Function compile flags: /Odtp /RTCsu
_TEXT	SEGMENT
_this$ = -16						; size = 4
__$EHRec$ = -12						; size = 12
_hInst$ = 8						; size = 4
??0Window@@QAE@PAUHINSTANCE__@@@Z PROC			; Window::Window
; _this$ = ecx
; File e:\test\direct2d_test\windowclass.cpp
; Line 19
	push	ebp
	mov	ebp, esp
	push	-1
	push	__ehhandler$??0Window@@QAE@PAUHINSTANCE__@@@Z
	mov	eax, DWORD PTR fs:0
	push	eax
	push	ecx
	mov	DWORD PTR [ebp-16], -858993460		; ccccccccH
	mov	eax, DWORD PTR ___security_cookie
	xor	eax, ebp
	push	eax
	lea	eax, DWORD PTR __$EHRec$[ebp]
	mov	DWORD PTR fs:0, eax
	mov	DWORD PTR _this$[ebp], ecx
	mov	ecx, OFFSET __C928C9E6_windowclass@cpp
	call	@__CheckForDebuggerJustMyCode@4
	mov	eax, DWORD PTR _this$[ebp]
	mov	DWORD PTR [eax], OFFSET ??_7Window@@6B@
; Line 16
	mov	ecx, DWORD PTR _this$[ebp]
	mov	DWORD PTR [ecx+4], 0
; Line 14
	mov	edx, DWORD PTR _this$[ebp]
	mov	DWORD PTR [edx+8], 0
; Line 15
	mov	eax, DWORD PTR _this$[ebp]
	mov	DWORD PTR [eax+12], 0
; Line 13
	mov	ecx, DWORD PTR _this$[ebp]
	mov	DWORD PTR [ecx+16], 0
; Line 12
	mov	edx, DWORD PTR _this$[ebp]
	mov	DWORD PTR [edx+20], 0
; Line 17
	mov	eax, DWORD PTR _this$[ebp]
	mov	DWORD PTR [eax+24], 0
; Line 18
	mov	ecx, DWORD PTR _this$[ebp]
	mov	DWORD PTR [ecx+28], 0
; Line 11
	mov	edx, DWORD PTR _this$[ebp]
	mov	eax, DWORD PTR _hInst$[ebp]
	mov	DWORD PTR [edx+32], eax
; Line 19
	mov	ecx, DWORD PTR _this$[ebp]
	add	ecx, 36					; 00000024H
	call	??0WndProcThunk@@QAE@XZ			; WndProcThunk::WndProcThunk
	mov	DWORD PTR __$EHRec$[ebp+8], 0
; Line 20
	mov	ecx, DWORD PTR _this$[ebp]
	push	ecx
	push	OFFSET ?StaticWndProc@Window@@KGJPAUHWND__@@IIJ@Z ; Window::StaticWndProc
	mov	ecx, DWORD PTR _this$[ebp]
	add	ecx, 36					; 00000024H
	call	?Init@WndProcThunk@@QAEHKPAX@Z		; WndProcThunk::Init
; Line 21
	mov	DWORD PTR __$EHRec$[ebp+8], -1
	mov	eax, DWORD PTR _this$[ebp]
	mov	ecx, DWORD PTR __$EHRec$[ebp]
	mov	DWORD PTR fs:0, ecx
	pop	ecx
	add	esp, 16					; 00000010H
	cmp	ebp, esp
	call	__RTC_CheckEsp
	mov	esp, ebp
	pop	ebp
	ret	4
_TEXT	ENDS
text$x	SEGMENT
__unwindfunclet$??0Window@@QAE@PAUHINSTANCE__@@@Z$0:
	mov	ecx, DWORD PTR _this$[ebp]
	add	ecx, 36					; 00000024H
	jmp	??1WndProcThunk@@QAE@XZ			; WndProcThunk::~WndProcThunk
__ehhandler$??0Window@@QAE@PAUHINSTANCE__@@@Z:
	mov	edx, DWORD PTR [esp+8]
	lea	eax, DWORD PTR [edx+12]
	mov	ecx, DWORD PTR [edx-8]
	xor	ecx, eax
	call	@__security_check_cookie@4
	mov	eax, OFFSET __ehfuncinfo$??0Window@@QAE@PAUHINSTANCE__@@@Z
	jmp	___CxxFrameHandler3
text$x	ENDS
??0Window@@QAE@PAUHINSTANCE__@@@Z ENDP			; Window::Window
; Function compile flags: /Odtp /RTCsu
;	COMDAT ?GetCodeAddress@_WndProcStdCallThunk@WndProcThunk@@QAEPAXXZ
_TEXT	SEGMENT
_this$ = -4						; size = 4
?GetCodeAddress@_WndProcStdCallThunk@WndProcThunk@@QAEPAXXZ PROC ; WndProcThunk::_WndProcStdCallThunk::GetCodeAddress, COMDAT
; _this$ = ecx
; File e:\test\direct2d_test\wndprocthunk.hpp
; Line 82
	push	ebp
	mov	ebp, esp
	push	ecx
	mov	DWORD PTR [ebp-4], -858993460		; ccccccccH
	mov	DWORD PTR _this$[ebp], ecx
	mov	ecx, OFFSET __9D38B4C5_wndprocthunk@hpp
	call	@__CheckForDebuggerJustMyCode@4
; Line 83
	mov	eax, DWORD PTR _this$[ebp]
; Line 84
	add	esp, 4
	cmp	ebp, esp
	call	__RTC_CheckEsp
	mov	esp, ebp
	pop	ebp
	ret	0
?GetCodeAddress@_WndProcStdCallThunk@WndProcThunk@@QAEPAXXZ ENDP ; WndProcThunk::_WndProcStdCallThunk::GetCodeAddress
_TEXT	ENDS
; Function compile flags: /Odtp /RTCsu
;	COMDAT ?Init@_WndProcStdCallThunk@WndProcThunk@@QAEHKPAX@Z
_TEXT	SEGMENT
_this$ = -4						; size = 4
_proc$ = 8						; size = 4
_pThis$ = 12						; size = 4
?Init@_WndProcStdCallThunk@WndProcThunk@@QAEHKPAX@Z PROC ; WndProcThunk::_WndProcStdCallThunk::Init, COMDAT
; _this$ = ecx
; File e:\test\direct2d_test\wndprocthunk.hpp
; Line 70
	push	ebp
	mov	ebp, esp
	push	ecx
	push	esi
	push	edi
	mov	DWORD PTR [ebp-4], -858993460		; ccccccccH
	mov	DWORD PTR _this$[ebp], ecx
	mov	ecx, OFFSET __9D38B4C5_wndprocthunk@hpp
	call	@__CheckForDebuggerJustMyCode@4
; Line 71
	mov	eax, DWORD PTR _this$[ebp]
	mov	DWORD PTR [eax], 69485767		; 042444c7H
; Line 72
	mov	ecx, DWORD PTR _this$[ebp]
	mov	edx, DWORD PTR _pThis$[ebp]
	mov	DWORD PTR [ecx+4], edx
; Line 73
	mov	eax, DWORD PTR _this$[ebp]
	mov	BYTE PTR [eax+8], 233			; 000000e9H
; Line 74
	mov	ecx, DWORD PTR _this$[ebp]
	add	ecx, 13					; 0000000dH
	mov	edx, DWORD PTR _proc$[ebp]
	sub	edx, ecx
	mov	eax, DWORD PTR _this$[ebp]
	mov	DWORD PTR [eax+9], edx
; Line 77
	mov	esi, esp
	push	13					; 0000000dH
	mov	ecx, DWORD PTR _this$[ebp]
	push	ecx
	mov	edi, esp
	call	DWORD PTR __imp__GetCurrentProcess@0
	cmp	edi, esp
	call	__RTC_CheckEsp
	push	eax
	call	DWORD PTR __imp__FlushInstructionCache@12
	cmp	esi, esp
	call	__RTC_CheckEsp
; Line 78
	mov	eax, 1
; Line 79
	pop	edi
	pop	esi
	add	esp, 4
	cmp	ebp, esp
	call	__RTC_CheckEsp
	mov	esp, ebp
	pop	ebp
	ret	8
?Init@_WndProcStdCallThunk@WndProcThunk@@QAEHKPAX@Z ENDP ; WndProcThunk::_WndProcStdCallThunk::Init
_TEXT	ENDS
; Function compile flags: /Odtp /RTCsu
;	COMDAT ?GetWndProcThunk@WndProcThunk@@QAEP6GJPAUHWND__@@IIJ@ZXZ
_TEXT	SEGMENT
_this$ = -4						; size = 4
?GetWndProcThunk@WndProcThunk@@QAEP6GJPAUHWND__@@IIJ@ZXZ PROC ; WndProcThunk::GetWndProcThunk, COMDAT
; _this$ = ecx
; File e:\test\direct2d_test\wndprocthunk.hpp
; Line 22
	push	ebp
	mov	ebp, esp
	push	ecx
	mov	DWORD PTR [ebp-4], -858993460		; ccccccccH
	mov	DWORD PTR _this$[ebp], ecx
	mov	ecx, OFFSET __9D38B4C5_wndprocthunk@hpp
	call	@__CheckForDebuggerJustMyCode@4
	mov	eax, DWORD PTR _this$[ebp]
	mov	ecx, DWORD PTR [eax]
	call	?GetCodeAddress@_WndProcStdCallThunk@WndProcThunk@@QAEPAXXZ ; WndProcThunk::_WndProcStdCallThunk::GetCodeAddress
	add	esp, 4
	cmp	ebp, esp
	call	__RTC_CheckEsp
	mov	esp, ebp
	pop	ebp
	ret	0
?GetWndProcThunk@WndProcThunk@@QAEP6GJPAUHWND__@@IIJ@ZXZ ENDP ; WndProcThunk::GetWndProcThunk
_TEXT	ENDS
; Function compile flags: /Odtp /RTCsu
;	COMDAT ?Init@WndProcThunk@@QAEHKPAX@Z
_TEXT	SEGMENT
_this$ = -4						; size = 4
_proc$ = 8						; size = 4
_pThis$ = 12						; size = 4
?Init@WndProcThunk@@QAEHKPAX@Z PROC			; WndProcThunk::Init, COMDAT
; _this$ = ecx
; File e:\test\direct2d_test\wndprocthunk.hpp
; Line 19
	push	ebp
	mov	ebp, esp
	push	ecx
	mov	DWORD PTR [ebp-4], -858993460		; ccccccccH
	mov	DWORD PTR _this$[ebp], ecx
	mov	ecx, OFFSET __9D38B4C5_wndprocthunk@hpp
	call	@__CheckForDebuggerJustMyCode@4
; Line 20
	mov	eax, DWORD PTR _pThis$[ebp]
	push	eax
	mov	ecx, DWORD PTR _proc$[ebp]
	push	ecx
	mov	edx, DWORD PTR _this$[ebp]
	mov	ecx, DWORD PTR [edx]
	call	?Init@_WndProcStdCallThunk@WndProcThunk@@QAEHKPAX@Z ; WndProcThunk::_WndProcStdCallThunk::Init
; Line 21
	add	esp, 4
	cmp	ebp, esp
	call	__RTC_CheckEsp
	mov	esp, ebp
	pop	ebp
	ret	8
?Init@WndProcThunk@@QAEHKPAX@Z ENDP			; WndProcThunk::Init
_TEXT	ENDS
; Function compile flags: /Odtp /RTCsu
;	COMDAT ??1WndProcThunk@@QAE@XZ
_TEXT	SEGMENT
_this$ = -16						; size = 4
__$EHRec$ = -12						; size = 12
??1WndProcThunk@@QAE@XZ PROC				; WndProcThunk::~WndProcThunk, COMDAT
; _this$ = ecx
; File e:\test\direct2d_test\wndprocthunk.hpp
; Line 12
	push	ebp
	mov	ebp, esp
	push	-1
	push	__ehhandler$??1WndProcThunk@@QAE@XZ
	mov	eax, DWORD PTR fs:0
	push	eax
	push	ecx
	push	esi
	mov	DWORD PTR [ebp-16], -858993460		; ccccccccH
	mov	eax, DWORD PTR ___security_cookie
	xor	eax, ebp
	push	eax
	lea	eax, DWORD PTR __$EHRec$[ebp]
	mov	DWORD PTR fs:0, eax
	mov	DWORD PTR _this$[ebp], ecx
	mov	ecx, OFFSET __9D38B4C5_wndprocthunk@hpp
	call	@__CheckForDebuggerJustMyCode@4
; Line 13
	mov	esi, esp
	push	32768					; 00008000H
	push	13					; 0000000dH
	mov	eax, DWORD PTR _this$[ebp]
	mov	ecx, DWORD PTR [eax]
	push	ecx
	call	DWORD PTR __imp__VirtualFree@12
	cmp	esi, esp
	call	__RTC_CheckEsp
; Line 14
	mov	ecx, DWORD PTR __$EHRec$[ebp]
	mov	DWORD PTR fs:0, ecx
	pop	ecx
	pop	esi
	add	esp, 16					; 00000010H
	cmp	ebp, esp
	call	__RTC_CheckEsp
	mov	esp, ebp
	pop	ebp
	ret	0
_TEXT	ENDS
;	COMDAT text$x
text$x	SEGMENT
__ehhandler$??1WndProcThunk@@QAE@XZ:
	mov	edx, DWORD PTR [esp+8]
	lea	eax, DWORD PTR [edx+12]
	mov	ecx, DWORD PTR [edx-12]
	xor	ecx, eax
	call	@__security_check_cookie@4
	mov	eax, OFFSET __ehfuncinfo$??1WndProcThunk@@QAE@XZ
	jmp	___CxxFrameHandler3
text$x	ENDS
??1WndProcThunk@@QAE@XZ ENDP				; WndProcThunk::~WndProcThunk
; Function compile flags: /Odtp /RTCsu
;	COMDAT ??0WndProcThunk@@QAE@XZ
_TEXT	SEGMENT
_this$ = -4						; size = 4
??0WndProcThunk@@QAE@XZ PROC				; WndProcThunk::WndProcThunk, COMDAT
; _this$ = ecx
; File e:\test\direct2d_test\wndprocthunk.hpp
; Line 7
	push	ebp
	mov	ebp, esp
	push	ecx
	push	esi
	mov	DWORD PTR [ebp-4], -858993460		; ccccccccH
	mov	DWORD PTR _this$[ebp], ecx
	mov	ecx, OFFSET __9D38B4C5_wndprocthunk@hpp
	call	@__CheckForDebuggerJustMyCode@4
; Line 8
	mov	esi, esp
	push	64					; 00000040H
	push	12288					; 00003000H
	push	13					; 0000000dH
	push	0
	call	DWORD PTR __imp__VirtualAlloc@16
	cmp	esi, esp
	call	__RTC_CheckEsp
	mov	ecx, DWORD PTR _this$[ebp]
	mov	DWORD PTR [ecx], eax
; Line 11
	mov	eax, DWORD PTR _this$[ebp]
	pop	esi
	add	esp, 4
	cmp	ebp, esp
	call	__RTC_CheckEsp
	mov	esp, ebp
	pop	ebp
	ret	0
??0WndProcThunk@@QAE@XZ ENDP				; WndProcThunk::WndProcThunk
_TEXT	ENDS
; Function compile flags: /Odtp /RTCsu
;	COMDAT _vsprintf_s
_TEXT	SEGMENT
__Buffer$ = 8						; size = 4
__BufferCount$ = 12					; size = 4
__Format$ = 16						; size = 4
__ArgList$ = 20						; size = 4
_vsprintf_s PROC					; COMDAT
; File c:\program files (x86)\windows kits\10\include\10.0.17763.0\ucrt\stdio.h
; Line 1519
	push	ebp
	mov	ebp, esp
	mov	ecx, OFFSET __A452D4A0_stdio@h
	call	@__CheckForDebuggerJustMyCode@4
; Line 1520
	mov	eax, DWORD PTR __ArgList$[ebp]
	push	eax
	push	0
	mov	ecx, DWORD PTR __Format$[ebp]
	push	ecx
	mov	edx, DWORD PTR __BufferCount$[ebp]
	push	edx
	mov	eax, DWORD PTR __Buffer$[ebp]
	push	eax
	call	__vsprintf_s_l
	add	esp, 20					; 00000014H
; Line 1521
	cmp	ebp, esp
	call	__RTC_CheckEsp
	pop	ebp
	ret	0
_vsprintf_s ENDP
_TEXT	ENDS
; Function compile flags: /Odtp /RTCsu
;	COMDAT __vsprintf_s_l
_TEXT	SEGMENT
tv73 = -8						; size = 4
__Result$ = -4						; size = 4
__Buffer$ = 8						; size = 4
__BufferCount$ = 12					; size = 4
__Format$ = 16						; size = 4
__Locale$ = 20						; size = 4
__ArgList$ = 24						; size = 4
__vsprintf_s_l PROC					; COMDAT
; File c:\program files (x86)\windows kits\10\include\10.0.17763.0\ucrt\stdio.h
; Line 1497
	push	ebp
	mov	ebp, esp
	sub	esp, 8
	push	esi
	mov	DWORD PTR [ebp-8], -858993460		; ccccccccH
	mov	DWORD PTR [ebp-4], -858993460		; ccccccccH
	mov	ecx, OFFSET __A452D4A0_stdio@h
	call	@__CheckForDebuggerJustMyCode@4
; Line 1498
	mov	esi, esp
	mov	eax, DWORD PTR __ArgList$[ebp]
	push	eax
	mov	ecx, DWORD PTR __Locale$[ebp]
	push	ecx
	mov	edx, DWORD PTR __Format$[ebp]
	push	edx
	mov	eax, DWORD PTR __BufferCount$[ebp]
	push	eax
	mov	ecx, DWORD PTR __Buffer$[ebp]
	push	ecx
	call	___local_stdio_printf_options
	mov	edx, DWORD PTR [eax+4]
	push	edx
	mov	eax, DWORD PTR [eax]
	push	eax
	call	DWORD PTR __imp____stdio_common_vsprintf_s
	add	esp, 28					; 0000001cH
	cmp	esi, esp
	call	__RTC_CheckEsp
	mov	DWORD PTR __Result$[ebp], eax
; Line 1502
	cmp	DWORD PTR __Result$[ebp], 0
	jge	SHORT $LN3@vsprintf_s
	mov	DWORD PTR tv73[ebp], -1
	jmp	SHORT $LN4@vsprintf_s
$LN3@vsprintf_s:
	mov	ecx, DWORD PTR __Result$[ebp]
	mov	DWORD PTR tv73[ebp], ecx
$LN4@vsprintf_s:
	mov	eax, DWORD PTR tv73[ebp]
; Line 1503
	pop	esi
	add	esp, 8
	cmp	ebp, esp
	call	__RTC_CheckEsp
	mov	esp, ebp
	pop	ebp
	ret	0
__vsprintf_s_l ENDP
_TEXT	ENDS
; Function compile flags: /Odtp /RTCsu
;	COMDAT ___local_stdio_printf_options
_TEXT	SEGMENT
___local_stdio_printf_options PROC			; COMDAT
; File c:\program files (x86)\windows kits\10\include\10.0.17763.0\ucrt\corecrt_stdio_config.h
; Line 86
	push	ebp
	mov	ebp, esp
	mov	ecx, OFFSET __2CC6E67D_corecrt_stdio_config@h
	call	@__CheckForDebuggerJustMyCode@4
; Line 88
	mov	eax, OFFSET ?_OptionsStorage@?1??__local_stdio_printf_options@@9@4_KA ; `__local_stdio_printf_options'::`2'::_OptionsStorage
; Line 89
	cmp	ebp, esp
	call	__RTC_CheckEsp
	pop	ebp
	ret	0
___local_stdio_printf_options ENDP
_TEXT	ENDS
; Function compile flags: /Odtp /RTCsu
_TEXT	SEGMENT
$T1 = -37						; size = 1
_msg$ = -32						; size = 28
_hInstance$ = 8						; size = 4
_hPrevInstance$ = 12					; size = 4
_lpCmdLine$ = 16					; size = 4
_nCmdShow$ = 20						; size = 4
_wWinMain@16 PROC
; File e:\test\direct2d_test\main.cpp
; Line 10
	push	ebp
	mov	ebp, esp
	sub	esp, 40					; 00000028H
	push	esi
	push	edi
	lea	edi, DWORD PTR [ebp-40]
	mov	ecx, 10					; 0000000aH
	mov	eax, -858993460				; ccccccccH
	rep stosd
	mov	BYTE PTR $T1[ebp], 0
	mov	ecx, OFFSET __E4A4DC94_main@cpp
	call	@__CheckForDebuggerJustMyCode@4
; Line 15
	push	0
	push	0
	push	0
	push	0
	push	768					; 00000300H
	push	1024					; 00000400H
	push	-2147483648				; 80000000H
	push	-2147483648				; 80000000H
	push	13565952				; 00cf0000H
	push	OFFSET $SG112525
	push	2097152					; 00200000H
	mov	ecx, OFFSET ?g_mainwin@@3VMainWin@@A	; g_mainwin
	call	?Create@Window@@QAE_NKPBDKHHHHPAUHWND__@@PAUHMENU__@@HPAUtagWNDCLASSEXA@@@Z ; Window::Create
; Line 17
	push	5
	mov	ecx, OFFSET ?g_mainwin@@3VMainWin@@A	; g_mainwin
	call	?Show@Window@@QAEXH@Z			; Window::Show
; Line 19
	push	OFFSET ?g_mainwin@@3VMainWin@@A		; g_mainwin
	call	?InitDirect2D@@YAXAAVWindow@@@Z		; InitDirect2D
	add	esp, 4
$LN2@wWinMain:
; Line 20
	cmp	BYTE PTR $T1[ebp], 0
	jne	SHORT $LN7@wWinMain
	push	OFFSET $LN8@wWinMain
	call	__RTC_UninitUse
	add	esp, 4
$LN7@wWinMain:
	cmp	DWORD PTR _msg$[ebp+4], 18		; 00000012H
	je	SHORT $LN3@wWinMain
; Line 22
	mov	esi, esp
	push	1
	push	0
	push	0
	push	0
	mov	BYTE PTR $T1[ebp], 1
	lea	eax, DWORD PTR _msg$[ebp]
	push	eax
	call	DWORD PTR __imp__PeekMessageA@20
	cmp	esi, esp
	call	__RTC_CheckEsp
	test	eax, eax
	je	SHORT $LN4@wWinMain
; Line 23
	mov	BYTE PTR $T1[ebp], 1
	mov	esi, esp
	lea	ecx, DWORD PTR _msg$[ebp]
	push	ecx
	call	DWORD PTR __imp__TranslateMessage@4
	cmp	esi, esp
	call	__RTC_CheckEsp
; Line 24
	mov	BYTE PTR $T1[ebp], 1
	mov	esi, esp
	lea	edx, DWORD PTR _msg$[ebp]
	push	edx
	call	DWORD PTR __imp__DispatchMessageA@4
	cmp	esi, esp
	call	__RTC_CheckEsp
; Line 26
	jmp	SHORT $LN5@wWinMain
$LN4@wWinMain:
; Line 27
	call	?RenderDirect2D@@YAXXZ			; RenderDirect2D
$LN5@wWinMain:
; Line 29
	jmp	SHORT $LN2@wWinMain
$LN3@wWinMain:
; Line 30
	call	?DestroyResource@@YAXXZ			; DestroyResource
; Line 31
	xor	eax, eax
; Line 32
	push	edx
	mov	ecx, ebp
	push	eax
	lea	edx, DWORD PTR $LN10@wWinMain
	call	@_RTC_CheckStackVars@8
	pop	eax
	pop	edx
	pop	edi
	pop	esi
	add	esp, 40					; 00000028H
	cmp	ebp, esp
	call	__RTC_CheckEsp
	mov	esp, ebp
	pop	ebp
	ret	16					; 00000010H
$LN10@wWinMain:
	DD	1
	DD	$LN9@wWinMain
$LN9@wWinMain:
	DD	-32					; ffffffe0H
	DD	28					; 0000001cH
	DD	$LN8@wWinMain
$LN8@wWinMain:
	DB	109					; 0000006dH
	DB	115					; 00000073H
	DB	103					; 00000067H
	DB	0
_wWinMain@16 ENDP
_TEXT	ENDS
END
